Certificate:
    Data:
        Version: 3 (0x2)
        Serial Number: 3 (0x3)
        Signature Algorithm: sha256WithRSAEncryption
        Issuer: C=GB, ST=Derbyshire, O=Paho Project, OU=Testing, CN=Signing CA
        Validity
            Not Before: Aug 20 00:00:00 2012 GMT
            Not After : Aug 21 00:00:00 2012 GMT
        Subject: C=GB, ST=Nottinghamshire, L=Nottingham, O=Server, OU=Production, CN=test client expired
        Subject Public Key Info:
            Public Key Algorithm: rsaEncryption
                Public-Key: (2048 bit)
                Modulus:
                    00:df:10:8b:6e:3b:8a:60:9a:75:00:6f:1e:24:74:
                    d2:a7:8d:34:6f:67:72:cb:67:4e:b9:00:6d:87:a3:
                    ea:b6:f5:9a:ba:5f:91:07:5d:15:24:f8:83:a1:77:
                    eb:a6:e2:c5:b0:50:7b:4c:9c:6f:fd:f9:7f:6d:db:
                    31:a3:99:c6:ec:f8:5c:4c:05:05:b2:5a:2a:29:bd:
                    1b:ab:31:af:c7:31:f1:0f:11:7a:63:97:c3:97:ec:
                    bd:be:d7:b9:0c:c5:06:bd:23:78:c3:4d:57:51:e4:
                    4c:02:d1:05:f7:bc:5b:34:d1:f0:bb:76:0f:80:16:
                    3a:0e:2a:52:4b:25:b3:85:dd:22:74:9e:e6:99:e9:
                    e2:ba:e9:28:6c:52:8f:c6:82:28:5f:58:77:58:5e:
                    e0:a3:1d:67:33:af:ea:bf:b0:d0:87:54:83:cb:62:
                    0b:7b:ba:9e:b7:62:45:3a:3b:c4:52:76:f3:89:5e:
                    cb:81:40:ac:6f:49:f9:c0:ca:15:cc:18:64:27:4e:
                    5a:6e:e8:8c:c9:6a:25:54:e4:55:0f:40:76:bf:ff:
                    f9:f9:ec:7e:ab:0c:96:32:06:a6:23:2d:59:12:c0:
                    0d:de:c6:3e:70:da:73:0c:c2:07:79:47:44:41:9a:
                    9f:0c:e7:a7:60:a2:a6:5f:6b:8a:74:ee:b3:3a:89:
                    ea:ff
                Exponent: 65537 (0x10001)
        X509v3 extensions:
            X509v3 Basic Constraints: 
                CA:FALSE
            Netscape Comment: 
                OpenSSL Generated Certificate
            X509v3 Subject Key Identifier: 
                77:A2:06:22:FF:12:3B:9C:53:76:12:67:54:11:C4:64:04:25:A1:61
            X509v3 Authority Key Identifier: 
                18:75:A0:8A:DA:16:27:DC:4A:01:BC:F1:0B:ED:2B:C2:CB:4E:29:D0
    Signature Algorithm: sha256WithRSAEncryption
    Signature Value:
        2e:0f:13:ca:5b:11:e9:bb:01:f4:a4:c4:1e:7a:0c:8b:fb:7e:
        3b:ac:fa:f6:6f:0f:12:dc:80:00:17:ba:2c:24:f5:69:a8:44:
        4b:32:7e:fb:35:c3:ee:cd:f9:64:46:8a:5e:59:6f:27:2c:bc:
        59:63:7d:a9:01:76:ad:f7:9b:f7:a3:42:c2:e2:d5:d0:43:d5:
        81:7f:26:0c:79:03:c3:72:88:de:40:01:55:14:73:f3:1e:ff:
        9d:06:70:34:f2:f7:b9:0d:be:5a:3f:ea:16:21:a2:4e:e6:38:
        15:29:52:11:8c:04:21:c6:b7:d8:08:ae:6d:1d:2e:a9:63:93:
        11:5b:80:2a:65:54:cd:6b:1d:19:e5:85:c8:82:3e:f8:7d:33:
        42:41:48:c5:2e:ed:38:78:fc:42:9e:45:de:0a:c6:e9:a7:a4:
        6f:b9:b6:95:1f:41:0c:b8:00:d6:cc:8b:5c:b5:04:34:57:23:
        f1:a8:9e:fa:69:1e:1f:d9:58:8e:bd:89:b7:95:53:42:28:46:
        f8:7a:01:47:b9:43:a8:0c:b0:01:7e:80:ba:8a:d2:e7:89:c4:
        c4:bb:27:fc:6a:ad:54:ad:24:a8:82:f8:79:63:ff:f6:b4:24:
        1e:4a:f9:02:62:de:67:b5:e9:ba:ce:93:d7:ba:41:72:ca:c8:
        c8:4c:68:1f
-----BEGIN CERTIFICATE-----
MIID1zCCAr+gAwIBAgIBAzANBgkqhkiG9w0BAQsFADBgMQswCQYDVQQGEwJHQjET
MBEGA1UECAwKRGVyYnlzaGlyZTEVMBMGA1UECgwMUGFobyBQcm9qZWN0MRAwDgYD
VQQLDAdUZXN0aW5nMRMwEQYDVQQDDApTaWduaW5nIENBMB4XDTEyMDgyMDAwMDAw
MFoXDTEyMDgyMTAwMDAwMFowgYAxCzAJBgNVBAYTAkdCMRgwFgYDVQQIDA9Ob3R0
aW5naGFtc2hpcmUxEzARBgNVBAcMCk5vdHRpbmdoYW0xDzANBgNVBAoMBlNlcnZl
cjETMBEGA1UECwwKUHJvZHVjdGlvbjEcMBoGA1UEAwwTdGVzdCBjbGllbnQgZXhw
aXJlZDCCASIwDQYJKoZIhvcNAQEBBQADggEPADCCAQoCggEBAN8Qi247imCadQBv
HiR00qeNNG9ncstnTrkAbYej6rb1mrpfkQddFST4g6F366bixbBQe0ycb/35f23b
MaOZxuz4XEwFBbJaKim9G6sxr8cx8Q8RemOXw5fsvb7XuQzFBr0jeMNNV1HkTALR
Bfe8WzTR8Lt2D4AWOg4qUksls4XdInSe5pnp4rrpKGxSj8aCKF9Yd1he4KMdZzOv
6r+w0IdUg8tiC3u6nrdiRTo7xFJ284ley4FArG9J+cDKFcwYZCdOWm7ojMlqJVTk
VQ9Adr//+fnsfqsMljIGpiMtWRLADd7GPnDacwzCB3lHREGanwznp2Cipl9rinTu
szqJ6v8CAwEAAaN7MHkwCQYDVR0TBAIwADAsBglghkgBhvhCAQ0EHxYdT3BlblNT
TCBHZW5lcmF0ZWQgQ2VydGlmaWNhdGUwHQYDVR0OBBYEFHeiBiL/EjucU3YSZ1QR
xGQEJaFhMB8GA1UdIwQYMBaAFBh1oIraFifcSgG88QvtK8LLTinQMA0GCSqGSIb3
DQEBCwUAA4IBAQAuDxPKWxHpuwH0pMQeegyL+347rPr2bw8S3IAAF7osJPVpqERL
Mn77NcPuzflkRopeWW8nLLxZY32pAXat95v3o0LC4tXQQ9WBfyYMeQPDcojeQAFV
FHPzHv+dBnA08ve5Db5aP+oWIaJO5jgVKVIRjAQhxrfYCK5tHS6pY5MRW4AqZVTN
ax0Z5YXIgj74fTNCQUjFLu04ePxCnkXeCsbpp6RvubaVH0EMuADWzItctQQ0VyPx
qJ76aR4f2ViOvYm3lVNCKEb4egFHuUOoDLABfoC6itLnicTEuyf8aq1UrSSogvh5
Y//2tCQeSvkCYt5ntem6zpPXukFyysjITGgf
-----END CERTIFICATE-----
