Certificate:
    Data:
        Version: 3 (0x2)
        Serial Number: 5 (0x5)
        Signature Algorithm: sha256WithRSAEncryption
        Issuer: C=GB, ST=Derbyshire, O=Paho Project, OU=Testing, CN=Signing CA
        Validity
            Not Before: Jul 15 15:24:06 2026 GMT
            Not After : Nov 15 15:24:06 3025 GMT
        Subject: C=GB, ST=Nottinghamshire, L=Nottingham, O=Server, OU=Production, CN=test client revoked
        Subject Public Key Info:
            Public Key Algorithm: rsaEncryption
                Public-Key: (2048 bit)
                Modulus:
                    00:96:0f:63:2b:52:4f:85:f8:21:87:e4:ba:bc:39:
                    95:8a:11:08:78:d7:49:98:6a:4f:16:a8:44:96:8e:
                    41:15:0f:7c:bd:77:c3:18:65:a9:2d:06:45:4f:b0:
                    6a:04:9f:42:e8:4e:f0:b7:22:db:c0:93:4a:7b:14:
                    85:13:11:f7:c0:53:47:77:fb:b8:68:db:aa:3d:6d:
                    b1:e3:6e:58:8f:9d:dc:98:6b:d9:d2:0d:d6:57:b6:
                    c0:68:6f:fb:c4:46:9e:78:91:77:be:fd:32:00:45:
                    02:39:7d:f8:55:d9:3d:cf:7b:4d:aa:4a:b1:b8:ef:
                    e7:e9:28:c0:02:92:d4:6c:ef:d2:f7:89:9a:13:ea:
                    8c:47:55:98:e6:2f:fd:bf:f2:53:b3:84:cd:a7:65:
                    af:d9:9a:5b:ee:74:bf:27:4f:6c:02:9f:76:dc:0e:
                    66:a1:ba:37:f3:19:43:3b:19:5c:d1:63:f5:3e:04:
                    0e:ae:1c:2e:c9:c8:37:ac:ce:8d:27:26:69:61:de:
                    f4:45:07:c8:4f:54:40:9f:a5:9e:c9:97:bb:07:8a:
                    62:5a:6a:a4:dd:38:08:f3:be:16:0a:b7:a5:01:56:
                    f0:9d:ec:63:f8:fb:bc:53:2d:a8:e4:af:7a:6c:99:
                    43:19:08:7f:ca:97:12:0c:0d:47:1a:43:1d:c7:6f:
                    38:91
                Exponent: 65537 (0x10001)
        X509v3 extensions:
            X509v3 Basic Constraints: 
                CA:FALSE
            Netscape Comment: 
                OpenSSL Generated Certificate
            X509v3 Subject Key Identifier: 
                D6:E1:C0:CF:8D:6E:8D:68:1E:DC:F5:D2:52:CE:42:31:34:04:6D:9D
            X509v3 Authority Key Identifier: 
                18:75:A0:8A:DA:16:27:DC:4A:01:BC:F1:0B:ED:2B:C2:CB:4E:29:D0
    Signature Algorithm: sha256WithRSAEncryption
    Signature Value:
        3d:5a:79:55:8c:6f:af:fd:82:52:db:59:43:ab:95:0b:90:63:
        6e:54:e4:0f:6b:cb:e2:00:bb:e9:de:43:58:a9:67:35:f9:5f:
        37:b0:75:4a:66:12:2a:a2:e0:76:79:dd:4a:eb:0a:d8:16:39:
        2b:91:3b:ed:66:86:9e:70:03:98:23:75:0d:41:85:5c:57:ba:
        a2:9b:8b:b1:de:05:f9:7b:e6:eb:2b:d5:50:4d:db:75:51:e4:
        43:ed:e0:09:06:0f:c0:93:ae:c8:29:c0:33:3f:6c:0e:62:b1:
        cd:8b:da:b2:10:f7:36:ef:33:d8:bd:96:c1:87:eb:1c:18:bd:
        4b:1f:56:a9:d4:d3:cb:32:6a:b0:8f:36:be:e0:a0:aa:8e:3f:
        d3:ee:f1:a7:98:0e:f9:c6:98:07:25:01:8d:1e:a7:95:36:db:
        97:1b:e0:0d:4e:7b:61:6f:d0:27:fe:dc:99:03:b1:19:ef:8a:
        93:ce:42:3e:bd:06:e3:f1:9a:96:00:33:26:27:6e:e2:c8:43:
        d0:e8:ce:bc:4b:d3:c0:3e:b0:54:d2:57:38:ce:89:86:15:c9:
        8b:e2:c3:46:e1:07:61:4f:90:bf:a9:80:41:6c:d1:d6:91:f0:
        8c:b2:57:6a:2b:ae:f2:d9:6b:14:3e:c5:da:1c:92:6b:29:29:
        ac:48:0c:2f
-----BEGIN CERTIFICATE-----
MIID2TCCAsGgAwIBAgIBBTANBgkqhkiG9w0BAQsFADBgMQswCQYDVQQGEwJHQjET
MBEGA1UECAwKRGVyYnlzaGlyZTEVMBMGA1UECgwMUGFobyBQcm9qZWN0MRAwDgYD
VQQLDAdUZXN0aW5nMRMwEQYDVQQDDApTaWduaW5nIENBMCAXDTI2MDcxNTE1MjQw
NloYDzMwMjUxMTE1MTUyNDA2WjCBgDELMAkGA1UEBhMCR0IxGDAWBgNVBAgMD05v
dHRpbmdoYW1zaGlyZTETMBEGA1UEBwwKTm90dGluZ2hhbTEPMA0GA1UECgwGU2Vy
dmVyMRMwEQYDVQQLDApQcm9kdWN0aW9uMRwwGgYDVQQDDBN0ZXN0IGNsaWVudCBy
ZXZva2VkMIIBIjANBgkqhkiG9w0BAQEFAAOCAQ8AMIIBCgKCAQEAlg9jK1JPhfgh
h+S6vDmVihEIeNdJmGpPFqhElo5BFQ98vXfDGGWpLQZFT7BqBJ9C6E7wtyLbwJNK
exSFExH3wFNHd/u4aNuqPW2x425Yj53cmGvZ0g3WV7bAaG/7xEaeeJF3vv0yAEUC
OX34Vdk9z3tNqkqxuO/n6SjAApLUbO/S94maE+qMR1WY5i/9v/JTs4TNp2Wv2Zpb
7nS/J09sAp923A5mobo38xlDOxlc0WP1PgQOrhwuycg3rM6NJyZpYd70RQfIT1RA
n6WeyZe7B4piWmqk3TgI874WCrelAVbwnexj+Pu8Uy2o5K96bJlDGQh/ypcSDA1H
GkMdx284kQIDAQABo3sweTAJBgNVHRMEAjAAMCwGCWCGSAGG+EIBDQQfFh1PcGVu
U1NMIEdlbmVyYXRlZCBDZXJ0aWZpY2F0ZTAdBgNVHQ4EFgQU1uHAz41ujWge3PXS
Us5CMTQEbZ0wHwYDVR0jBBgwFoAUGHWgitoWJ9xKAbzxC+0rwstOKdAwDQYJKoZI
hvcNAQELBQADggEBAD1aeVWMb6/9glLbWUOrlQuQY25U5A9ry+IAu+neQ1ipZzX5
XzewdUpmEiqi4HZ53UrrCtgWOSuRO+1mhp5wA5gjdQ1BhVxXuqKbi7HeBfl75usr
1VBN23VR5EPt4AkGD8CTrsgpwDM/bA5isc2L2rIQ9zbvM9i9lsGH6xwYvUsfVqnU
08syarCPNr7goKqOP9Pu8aeYDvnGmAclAY0ep5U225cb4A1Oe2Fv0Cf+3JkDsRnv
ipPOQj69BuPxmpYAMyYnbuLIQ9DozrxL08A+sFTSVzjOiYYVyYviw0bhB2FPkL+p
gEFs0daR8IyyV2orrvLZaxQ+xdockmspKaxIDC8=
-----END CERTIFICATE-----
