Certificate:
    Data:
        Version: 3 (0x2)
        Serial Number: 5 (0x5)
        Signature Algorithm: sha256WithRSAEncryption
        Issuer: C=GB, ST=Derbyshire, O=Paho Project, OU=Testing, CN=Signing CA
        Validity
            Not Before: Jul 13 10:56:00 2026 GMT
            Not After : Jul 12 10:56:00 2031 GMT
        Subject: C=GB, ST=Nottinghamshire, L=Nottingham, O=Server, OU=Production, CN=test client revoked
        Subject Public Key Info:
            Public Key Algorithm: rsaEncryption
                Public-Key: (2048 bit)
                Modulus:
                    00:af:03:85:af:ca:e3:19:da:c5:19:23:5a:0d:e2:
                    f6:d1:83:0f:4f:8a:16:86:38:74:ac:ee:cd:95:45:
                    ba:4e:0e:fd:01:9e:a0:a1:06:43:41:17:6d:a9:6a:
                    87:ea:2d:ff:f2:f4:4e:ad:7b:76:3f:cf:24:6b:74:
                    33:25:eb:89:8e:43:06:2b:88:1b:39:bd:b1:3c:d3:
                    6c:41:25:c8:c9:a8:e1:af:4a:e6:bb:76:77:6b:81:
                    18:e4:8e:26:32:00:14:6d:f5:ca:65:3e:29:56:1d:
                    5f:d5:6b:30:02:01:65:c4:e4:37:7d:79:c6:91:c2:
                    53:18:4b:2a:bf:de:ed:77:8c:e2:d5:eb:14:b8:f5:
                    4c:66:b3:14:07:b6:fc:b0:5b:71:d4:51:7f:f3:0d:
                    1b:3b:20:c7:9f:dc:16:75:96:f5:96:d4:a0:fa:86:
                    72:7d:0b:ae:cf:2b:31:5e:7d:fc:86:38:e7:99:c1:
                    de:de:b0:53:c2:a0:8b:35:d5:ac:e2:ae:cf:80:11:
                    84:c7:30:0e:a4:a3:94:a2:3a:81:07:86:fe:81:9a:
                    eb:a8:8f:cf:10:c9:ec:f0:b2:25:cf:b1:f6:83:4b:
                    c4:ad:69:42:6b:79:e2:7d:ef:4f:a4:5f:ee:13:03:
                    df:a0:63:09:d1:19:a3:72:57:f2:26:89:a8:38:8f:
                    55:79
                Exponent: 65537 (0x10001)
        X509v3 extensions:
            X509v3 Basic Constraints: 
                CA:FALSE
            Netscape Comment: 
                OpenSSL Generated Certificate
            X509v3 Subject Key Identifier: 
                38:DD:06:DA:08:A2:7E:8C:0F:CA:0B:53:96:46:35:4C:95:A2:72:1A
            X509v3 Authority Key Identifier: 
                41:EB:9F:5B:4C:1C:16:2B:ED:7B:A3:74:34:9C:4B:13:8D:67:C7:76
    Signature Algorithm: sha256WithRSAEncryption
    Signature Value:
        ac:75:93:d3:41:2d:c1:99:d2:f8:0b:ba:c6:fb:2f:d7:a7:a1:
        26:c4:09:4c:4f:ac:41:4c:9e:db:3f:1a:a5:c2:f0:88:d5:0c:
        d4:f3:d3:7a:71:5a:19:cb:52:cb:5a:43:9f:51:42:90:d3:a9:
        e2:dd:d3:59:d5:bd:69:e5:42:57:3f:9f:0c:f0:6c:7e:09:20:
        81:c0:34:ac:13:70:fd:cd:fc:09:19:f6:f8:60:5f:12:1d:a6:
        26:b6:73:c3:cb:03:8b:a8:5e:5a:a1:35:82:c0:48:2b:3a:3e:
        f8:f2:a2:80:4f:fa:ae:7c:32:e4:16:ee:5c:12:7b:53:2a:1b:
        03:75:89:43:60:80:03:ef:4e:57:cd:1d:4d:00:2a:a7:6b:e3:
        aa:43:fe:e2:0e:97:71:72:92:9c:a9:38:d7:44:51:77:ca:58:
        51:33:a0:85:4e:5f:14:73:54:0c:04:bb:b2:02:ae:82:cf:9c:
        a8:13:e0:4d:25:e5:8c:e8:b9:71:b2:31:10:70:c8:99:57:51:
        40:99:7f:63:64:ad:4a:b7:ee:c4:fc:76:fb:25:b0:2b:bd:71:
        9a:ef:0a:4a:33:b7:06:e0:f5:52:61:15:5d:19:c8:ec:9b:58:
        70:92:8d:9e:7e:30:fa:84:e9:b2:aa:96:96:93:fb:60:75:4f:
        45:70:0f:f9
-----BEGIN CERTIFICATE-----
MIID1zCCAr+gAwIBAgIBBTANBgkqhkiG9w0BAQsFADBgMQswCQYDVQQGEwJHQjET
MBEGA1UECAwKRGVyYnlzaGlyZTEVMBMGA1UECgwMUGFobyBQcm9qZWN0MRAwDgYD
VQQLDAdUZXN0aW5nMRMwEQYDVQQDDApTaWduaW5nIENBMB4XDTI2MDcxMzEwNTYw
MFoXDTMxMDcxMjEwNTYwMFowgYAxCzAJBgNVBAYTAkdCMRgwFgYDVQQIDA9Ob3R0
aW5naGFtc2hpcmUxEzARBgNVBAcMCk5vdHRpbmdoYW0xDzANBgNVBAoMBlNlcnZl
cjETMBEGA1UECwwKUHJvZHVjdGlvbjEcMBoGA1UEAwwTdGVzdCBjbGllbnQgcmV2
b2tlZDCCASIwDQYJKoZIhvcNAQEBBQADggEPADCCAQoCggEBAK8Dha/K4xnaxRkj
Wg3i9tGDD0+KFoY4dKzuzZVFuk4O/QGeoKEGQ0EXbalqh+ot//L0Tq17dj/PJGt0
MyXriY5DBiuIGzm9sTzTbEElyMmo4a9K5rt2d2uBGOSOJjIAFG31ymU+KVYdX9Vr
MAIBZcTkN315xpHCUxhLKr/e7XeM4tXrFLj1TGazFAe2/LBbcdRRf/MNGzsgx5/c
FnWW9ZbUoPqGcn0Lrs8rMV59/IY455nB3t6wU8KgizXVrOKuz4ARhMcwDqSjlKI6
gQeG/oGa66iPzxDJ7PCyJc+x9oNLxK1pQmt54n3vT6Rf7hMD36BjCdEZo3JX8iaJ
qDiPVXkCAwEAAaN7MHkwCQYDVR0TBAIwADAsBglghkgBhvhCAQ0EHxYdT3BlblNT
TCBHZW5lcmF0ZWQgQ2VydGlmaWNhdGUwHQYDVR0OBBYEFDjdBtoIon6MD8oLU5ZG
NUyVonIaMB8GA1UdIwQYMBaAFEHrn1tMHBYr7XujdDScSxONZ8d2MA0GCSqGSIb3
DQEBCwUAA4IBAQCsdZPTQS3BmdL4C7rG+y/Xp6EmxAlMT6xBTJ7bPxqlwvCI1QzU
89N6cVoZy1LLWkOfUUKQ06ni3dNZ1b1p5UJXP58M8Gx+CSCBwDSsE3D9zfwJGfb4
YF8SHaYmtnPDywOLqF5aoTWCwEgrOj748qKAT/qufDLkFu5cEntTKhsDdYlDYIAD
705XzR1NACqna+OqQ/7iDpdxcpKcqTjXRFF3ylhRM6CFTl8Uc1QMBLuyAq6Cz5yo
E+BNJeWM6LlxsjEQcMiZV1FAmX9jZK1Kt+7E/Hb7JbArvXGa7wpKM7cG4PVSYRVd
Gcjsm1hwko2efjD6hOmyqpaWk/tgdU9FcA/5
-----END CERTIFICATE-----
