Certificate:
    Data:
        Version: 3 (0x2)
        Serial Number: 3 (0x3)
        Signature Algorithm: sha256WithRSAEncryption
        Issuer: C=GB, ST=Derbyshire, O=Paho Project, OU=Testing, CN=Signing CA
        Validity
            Not Before: Aug 20 00:00:00 2012 GMT
            Not After : Aug 21 00:00:00 2012 GMT
        Subject: C=GB, ST=Nottinghamshire, L=Nottingham, O=Server, OU=Production, CN=test client expired
        Subject Public Key Info:
            Public Key Algorithm: rsaEncryption
                Public-Key: (2048 bit)
                Modulus:
                    00:e1:09:a4:b3:90:de:40:71:0f:72:ce:5b:29:a5:
                    81:35:bd:cf:f2:9e:24:cc:4a:ed:9a:b7:c9:cf:5a:
                    76:e7:7a:57:86:92:87:74:52:53:9b:94:b8:ce:53:
                    78:2f:4f:2b:56:88:d2:5c:79:0a:39:be:cb:d8:a6:
                    93:1a:82:ad:b8:a4:9d:92:14:fe:fc:64:be:9d:cd:
                    b2:f0:ef:cf:57:f6:c5:50:7b:99:e3:e4:b3:d8:a6:
                    1b:4e:57:3a:5e:d5:50:bc:30:d4:c2:f6:c7:34:8c:
                    f5:c8:a6:75:c3:45:84:8c:dc:0b:33:60:2d:c8:bd:
                    a1:ab:34:74:1e:81:d7:ef:0a:1e:a2:46:25:39:5a:
                    ff:78:c3:4c:2b:a6:c7:b0:8b:55:3e:69:db:70:e7:
                    56:41:b5:68:2d:4f:f4:8d:48:7d:d4:62:1e:2f:1b:
                    0e:c1:b3:a0:e2:34:49:76:6a:a7:c8:b1:53:64:f4:
                    3b:cd:46:50:67:65:d1:46:d8:fa:55:32:d5:c7:31:
                    72:6a:19:d4:15:1b:bc:5a:d3:9c:08:3c:7d:72:c0:
                    80:08:f5:42:b4:52:3f:f8:a2:fc:f4:d0:c0:e1:e4:
                    a7:52:a2:2b:69:a4:14:d4:a4:a0:13:2c:bd:64:6c:
                    a2:47:dd:71:d6:5e:df:cc:8f:ed:40:9e:f0:34:72:
                    86:55
                Exponent: 65537 (0x10001)
        X509v3 extensions:
            X509v3 Basic Constraints: 
                CA:FALSE
            Netscape Comment: 
                OpenSSL Generated Certificate
            X509v3 Subject Key Identifier: 
                CB:2D:8D:13:2D:1D:B2:00:CF:E7:29:E7:DD:C4:24:FB:AA:96:E7:9B
            X509v3 Authority Key Identifier: 
                41:EB:9F:5B:4C:1C:16:2B:ED:7B:A3:74:34:9C:4B:13:8D:67:C7:76
    Signature Algorithm: sha256WithRSAEncryption
    Signature Value:
        05:6c:bf:c8:79:0a:4f:bb:92:ee:f6:a6:36:1d:32:6a:1d:a4:
        c6:07:e6:c3:71:25:d1:4c:cf:e9:85:15:55:b7:9c:e3:3a:15:
        f0:5c:80:f8:ed:6d:97:21:78:25:af:aa:4d:bf:44:ee:f4:21:
        71:cf:7d:89:83:38:8b:b5:af:6b:55:6d:71:72:1d:a7:fc:bd:
        04:a2:cc:78:a6:b2:88:88:30:b2:de:9c:58:12:c8:d1:6c:db:
        67:4f:6f:95:56:ed:13:e0:58:c4:96:d3:2a:37:76:77:53:d6:
        d0:f3:ac:cd:04:c5:57:63:b9:fb:bd:51:ef:82:b1:0c:bd:dc:
        26:e2:68:e8:59:b1:de:ce:86:4a:81:25:3f:1e:de:f5:a0:a0:
        f0:7c:ae:76:91:68:51:f7:4a:bf:6f:d1:5f:94:56:a3:63:35:
        d5:ed:3c:bf:5d:18:b0:5a:3b:e8:c8:f5:dd:ab:a5:4a:04:65:
        2e:73:fb:51:9d:ae:d3:e9:a8:ea:81:c0:79:b6:fc:78:ab:52:
        4f:e5:7b:32:00:c8:96:34:71:94:3e:02:e6:75:a4:93:68:19:
        53:bf:4a:a6:bb:c2:9c:e6:60:20:56:d2:76:25:07:1e:f1:9b:
        b6:6d:f2:1b:6c:42:a1:b4:45:f4:19:11:d6:f4:31:4e:8c:0b:
        e8:dd:2c:1f
-----BEGIN CERTIFICATE-----
MIID1zCCAr+gAwIBAgIBAzANBgkqhkiG9w0BAQsFADBgMQswCQYDVQQGEwJHQjET
MBEGA1UECAwKRGVyYnlzaGlyZTEVMBMGA1UECgwMUGFobyBQcm9qZWN0MRAwDgYD
VQQLDAdUZXN0aW5nMRMwEQYDVQQDDApTaWduaW5nIENBMB4XDTEyMDgyMDAwMDAw
MFoXDTEyMDgyMTAwMDAwMFowgYAxCzAJBgNVBAYTAkdCMRgwFgYDVQQIDA9Ob3R0
aW5naGFtc2hpcmUxEzARBgNVBAcMCk5vdHRpbmdoYW0xDzANBgNVBAoMBlNlcnZl
cjETMBEGA1UECwwKUHJvZHVjdGlvbjEcMBoGA1UEAwwTdGVzdCBjbGllbnQgZXhw
aXJlZDCCASIwDQYJKoZIhvcNAQEBBQADggEPADCCAQoCggEBAOEJpLOQ3kBxD3LO
WymlgTW9z/KeJMxK7Zq3yc9adud6V4aSh3RSU5uUuM5TeC9PK1aI0lx5Cjm+y9im
kxqCrbiknZIU/vxkvp3NsvDvz1f2xVB7mePks9imG05XOl7VULww1ML2xzSM9cim
dcNFhIzcCzNgLci9oas0dB6B1+8KHqJGJTla/3jDTCumx7CLVT5p23DnVkG1aC1P
9I1IfdRiHi8bDsGzoOI0SXZqp8ixU2T0O81GUGdl0UbY+lUy1ccxcmoZ1BUbvFrT
nAg8fXLAgAj1QrRSP/ii/PTQwOHkp1KiK2mkFNSkoBMsvWRsokfdcdZe38yP7UCe
8DRyhlUCAwEAAaN7MHkwCQYDVR0TBAIwADAsBglghkgBhvhCAQ0EHxYdT3BlblNT
TCBHZW5lcmF0ZWQgQ2VydGlmaWNhdGUwHQYDVR0OBBYEFMstjRMtHbIAz+cp593E
JPuqluebMB8GA1UdIwQYMBaAFEHrn1tMHBYr7XujdDScSxONZ8d2MA0GCSqGSIb3
DQEBCwUAA4IBAQAFbL/IeQpPu5Lu9qY2HTJqHaTGB+bDcSXRTM/phRVVt5zjOhXw
XID47W2XIXglr6pNv0Tu9CFxz32JgziLta9rVW1xch2n/L0Eosx4prKIiDCy3pxY
EsjRbNtnT2+VVu0T4FjEltMqN3Z3U9bQ86zNBMVXY7n7vVHvgrEMvdwm4mjoWbHe
zoZKgSU/Ht71oKDwfK52kWhR90q/b9FflFajYzXV7Ty/XRiwWjvoyPXdq6VKBGUu
c/tRna7T6ajqgcB5tvx4q1JP5XsyAMiWNHGUPgLmdaSTaBlTv0qmu8Kc5mAgVtJ2
JQce8Zu2bfIbbEKhtEX0GRHW9DFOjAvo3Swf
-----END CERTIFICATE-----
