Certificate:
    Data:
        Version: 3 (0x2)
        Serial Number: 4 (0x4)
        Signature Algorithm: sha256WithRSAEncryption
        Issuer: C=GB, ST=Derbyshire, O=Paho Project, OU=Testing, CN=Signing CA
        Validity
            Not Before: Jul 15 15:24:05 2026 GMT
            Not After : Nov 15 15:24:05 3025 GMT
        Subject: C=GB, ST=Nottinghamshire, L=Nottingham, O=Server, OU=Production, CN=test client with password
        Subject Public Key Info:
            Public Key Algorithm: rsaEncryption
                Public-Key: (2048 bit)
                Modulus:
                    00:ac:14:e8:39:8c:ba:09:78:24:62:60:53:7d:94:
                    5e:32:61:d6:c7:c0:c2:d9:da:62:4e:8d:de:91:c1:
                    1f:34:57:5c:a7:fc:3a:1d:81:d7:91:88:c7:f5:a4:
                    92:f5:75:1c:3b:64:07:19:b1:8e:98:12:d9:55:1d:
                    88:e1:43:a0:a0:dc:78:b4:19:f3:aa:3c:cc:81:d9:
                    e3:5b:09:3e:cf:8e:69:e7:e6:21:8b:fd:63:8c:d3:
                    20:5d:54:42:42:39:22:d1:60:36:af:0f:d7:61:ce:
                    1b:d0:a6:75:49:51:ad:ee:6b:8d:36:2f:59:7d:23:
                    76:30:ac:30:a4:ab:4f:34:c5:95:9b:6b:6c:64:94:
                    b5:33:28:1a:a1:43:21:53:72:9a:10:ef:21:d7:84:
                    ef:fc:73:fe:7c:4f:a2:30:27:f7:b8:37:06:48:af:
                    50:51:22:2d:69:76:95:ae:16:4b:fe:1b:32:47:04:
                    a8:5a:7f:62:10:91:9c:d0:fa:1b:71:b4:81:33:aa:
                    2f:c8:0e:19:2e:31:1a:73:12:7d:c9:db:d6:0e:1c:
                    a4:f8:e5:dc:48:ec:e7:a6:65:91:08:16:e8:65:c4:
                    28:62:9c:e7:b0:ad:22:11:82:bf:1c:fa:7f:d8:a9:
                    f4:d1:72:31:bc:4f:17:1f:e8:dd:5f:f4:a9:95:67:
                    25:bf
                Exponent: 65537 (0x10001)
        X509v3 extensions:
            X509v3 Basic Constraints: 
                CA:FALSE
            Netscape Comment: 
                OpenSSL Generated Certificate
            X509v3 Subject Key Identifier: 
                24:79:9E:F2:7F:17:6E:9B:E5:E7:4A:F2:30:7F:45:6B:24:22:84:65
            X509v3 Authority Key Identifier: 
                18:75:A0:8A:DA:16:27:DC:4A:01:BC:F1:0B:ED:2B:C2:CB:4E:29:D0
    Signature Algorithm: sha256WithRSAEncryption
    Signature Value:
        1e:75:c3:57:d3:12:1a:e2:f7:0b:52:45:52:d9:d1:57:0e:5c:
        d0:c9:f6:cb:d6:68:20:1d:09:53:a4:b2:72:bc:db:e4:97:83:
        db:a6:20:46:f6:83:2c:ce:3a:b2:a8:fd:dc:1c:f1:38:1c:00:
        bf:bf:ab:30:d6:9b:0d:7e:5b:95:ec:76:f3:e4:2e:4d:6a:b4:
        2b:29:19:03:e0:fa:73:d3:38:2a:5f:2f:b0:df:3d:72:aa:f0:
        00:71:87:ba:19:61:37:ac:27:63:f0:4c:90:6f:ab:1c:f9:6e:
        ac:49:3e:24:8a:06:78:f1:62:c1:f0:bf:5a:a1:e2:6f:09:31:
        bf:60:b8:97:d1:54:fe:2d:ac:e6:47:97:1f:91:e7:d0:b8:97:
        ed:ec:03:3f:32:51:4d:5b:d9:e2:9c:ed:00:7f:98:4a:a9:16:
        2c:e7:1b:58:f8:42:f3:38:0a:62:25:b0:a7:11:1f:cd:dc:98:
        a5:ef:74:f6:ac:30:e4:79:d6:cb:ab:46:ea:e5:b5:f8:74:66:
        6d:a7:38:4b:55:42:c7:7c:2a:22:37:02:70:1a:17:5e:ff:42:
        e1:12:e7:3f:f1:a8:66:ee:6b:67:83:4c:a6:33:10:ed:3c:3a:
        30:b0:65:b8:97:0c:3a:74:15:89:a5:74:07:25:6e:2e:13:a2:
        36:14:8d:ee
-----BEGIN CERTIFICATE-----
MIID3zCCAsegAwIBAgIBBDANBgkqhkiG9w0BAQsFADBgMQswCQYDVQQGEwJHQjET
MBEGA1UECAwKRGVyYnlzaGlyZTEVMBMGA1UECgwMUGFobyBQcm9qZWN0MRAwDgYD
VQQLDAdUZXN0aW5nMRMwEQYDVQQDDApTaWduaW5nIENBMCAXDTI2MDcxNTE1MjQw
NVoYDzMwMjUxMTE1MTUyNDA1WjCBhjELMAkGA1UEBhMCR0IxGDAWBgNVBAgMD05v
dHRpbmdoYW1zaGlyZTETMBEGA1UEBwwKTm90dGluZ2hhbTEPMA0GA1UECgwGU2Vy
dmVyMRMwEQYDVQQLDApQcm9kdWN0aW9uMSIwIAYDVQQDDBl0ZXN0IGNsaWVudCB3
aXRoIHBhc3N3b3JkMIIBIjANBgkqhkiG9w0BAQEFAAOCAQ8AMIIBCgKCAQEArBTo
OYy6CXgkYmBTfZReMmHWx8DC2dpiTo3ekcEfNFdcp/w6HYHXkYjH9aSS9XUcO2QH
GbGOmBLZVR2I4UOgoNx4tBnzqjzMgdnjWwk+z45p5+Yhi/1jjNMgXVRCQjki0WA2
rw/XYc4b0KZ1SVGt7muNNi9ZfSN2MKwwpKtPNMWVm2tsZJS1MygaoUMhU3KaEO8h
14Tv/HP+fE+iMCf3uDcGSK9QUSItaXaVrhZL/hsyRwSoWn9iEJGc0PobcbSBM6ov
yA4ZLjEacxJ9ydvWDhyk+OXcSOznpmWRCBboZcQoYpznsK0iEYK/HPp/2Kn00XIx
vE8XH+jdX/SplWclvwIDAQABo3sweTAJBgNVHRMEAjAAMCwGCWCGSAGG+EIBDQQf
Fh1PcGVuU1NMIEdlbmVyYXRlZCBDZXJ0aWZpY2F0ZTAdBgNVHQ4EFgQUJHme8n8X
bpvl50ryMH9FayQihGUwHwYDVR0jBBgwFoAUGHWgitoWJ9xKAbzxC+0rwstOKdAw
DQYJKoZIhvcNAQELBQADggEBAB51w1fTEhri9wtSRVLZ0VcOXNDJ9svWaCAdCVOk
snK82+SXg9umIEb2gyzOOrKo/dwc8TgcAL+/qzDWmw1+W5XsdvPkLk1qtCspGQPg
+nPTOCpfL7DfPXKq8ABxh7oZYTesJ2PwTJBvqxz5bqxJPiSKBnjxYsHwv1qh4m8J
Mb9guJfRVP4trOZHlx+R59C4l+3sAz8yUU1b2eKc7QB/mEqpFiznG1j4QvM4CmIl
sKcRH83cmKXvdPasMOR51surRurltfh0Zm2nOEtVQsd8KiI3AnAaF17/QuES5z/x
qGbua2eDTKYzEO08OjCwZbiXDDp0FYmldAclbi4TojYUje4=
-----END CERTIFICATE-----
