Certificate:
    Data:
        Version: 3 (0x2)
        Serial Number: 2 (0x2)
        Signature Algorithm: sha256WithRSAEncryption
        Issuer: C=GB, ST=Derbyshire, O=Paho Project, OU=Testing, CN=Signing CA
        Validity
            Not Before: Jul 15 15:24:05 2026 GMT
            Not After : Nov 15 15:24:05 3025 GMT
        Subject: C=GB, ST=Nottinghamshire, L=Nottingham, O=Server, OU=Production, CN=test client
        Subject Public Key Info:
            Public Key Algorithm: rsaEncryption
                Public-Key: (2048 bit)
                Modulus:
                    00:df:10:8b:6e:3b:8a:60:9a:75:00:6f:1e:24:74:
                    d2:a7:8d:34:6f:67:72:cb:67:4e:b9:00:6d:87:a3:
                    ea:b6:f5:9a:ba:5f:91:07:5d:15:24:f8:83:a1:77:
                    eb:a6:e2:c5:b0:50:7b:4c:9c:6f:fd:f9:7f:6d:db:
                    31:a3:99:c6:ec:f8:5c:4c:05:05:b2:5a:2a:29:bd:
                    1b:ab:31:af:c7:31:f1:0f:11:7a:63:97:c3:97:ec:
                    bd:be:d7:b9:0c:c5:06:bd:23:78:c3:4d:57:51:e4:
                    4c:02:d1:05:f7:bc:5b:34:d1:f0:bb:76:0f:80:16:
                    3a:0e:2a:52:4b:25:b3:85:dd:22:74:9e:e6:99:e9:
                    e2:ba:e9:28:6c:52:8f:c6:82:28:5f:58:77:58:5e:
                    e0:a3:1d:67:33:af:ea:bf:b0:d0:87:54:83:cb:62:
                    0b:7b:ba:9e:b7:62:45:3a:3b:c4:52:76:f3:89:5e:
                    cb:81:40:ac:6f:49:f9:c0:ca:15:cc:18:64:27:4e:
                    5a:6e:e8:8c:c9:6a:25:54:e4:55:0f:40:76:bf:ff:
                    f9:f9:ec:7e:ab:0c:96:32:06:a6:23:2d:59:12:c0:
                    0d:de:c6:3e:70:da:73:0c:c2:07:79:47:44:41:9a:
                    9f:0c:e7:a7:60:a2:a6:5f:6b:8a:74:ee:b3:3a:89:
                    ea:ff
                Exponent: 65537 (0x10001)
        X509v3 extensions:
            X509v3 Basic Constraints: 
                CA:FALSE
            Netscape Comment: 
                OpenSSL Generated Certificate
            X509v3 Subject Key Identifier: 
                77:A2:06:22:FF:12:3B:9C:53:76:12:67:54:11:C4:64:04:25:A1:61
            X509v3 Authority Key Identifier: 
                18:75:A0:8A:DA:16:27:DC:4A:01:BC:F1:0B:ED:2B:C2:CB:4E:29:D0
    Signature Algorithm: sha256WithRSAEncryption
    Signature Value:
        06:bb:61:8c:66:36:43:17:ff:6b:fa:52:00:54:ba:cf:97:d0:
        b3:3d:7b:16:90:7e:59:91:ee:2a:8a:f7:06:9c:41:b6:0c:ad:
        d6:91:94:92:9a:a3:3c:ed:30:55:ae:b7:ce:ea:f3:13:a4:93:
        48:38:23:68:4e:a7:8c:91:0f:a9:d1:66:ff:af:e8:1e:9a:f2:
        49:40:70:95:8a:ab:c5:84:4c:94:05:93:de:56:44:d0:28:78:
        6c:a1:97:19:19:99:fc:92:93:98:8b:74:a3:66:dd:14:82:82:
        f9:09:4e:7d:07:4f:b9:e3:35:a9:15:23:73:95:2a:61:d6:f4:
        dd:0d:0b:e1:15:c8:cc:ad:51:17:7e:b3:6c:5c:94:57:74:15:
        e2:d0:3f:22:66:e8:40:38:3b:04:98:c7:df:ac:f4:97:f7:57:
        53:d6:cf:c3:f9:40:81:4a:e4:ea:44:51:88:f8:39:19:6f:d0:
        d8:71:a9:98:08:2b:4b:06:0c:9d:4c:a0:cb:69:56:07:18:18:
        10:33:19:7b:5f:4f:6a:1c:c7:ad:9b:a4:d5:66:d2:ca:a3:46:
        cc:03:cd:17:b7:9c:48:cb:f3:7f:8e:fe:b0:34:d7:ee:9a:21:
        3a:56:0f:10:87:8d:a0:f7:9f:95:30:46:98:ce:05:60:85:2a:
        58:bf:ad:57
-----BEGIN CERTIFICATE-----
MIID0DCCArigAwIBAgIBAjANBgkqhkiG9w0BAQsFADBgMQswCQYDVQQGEwJHQjET
MBEGA1UECAwKRGVyYnlzaGlyZTEVMBMGA1UECgwMUGFobyBQcm9qZWN0MRAwDgYD
VQQLDAdUZXN0aW5nMRMwEQYDVQQDDApTaWduaW5nIENBMCAXDTI2MDcxNTE1MjQw
NVoYDzMwMjUxMTE1MTUyNDA1WjB4MQswCQYDVQQGEwJHQjEYMBYGA1UECAwPTm90
dGluZ2hhbXNoaXJlMRMwEQYDVQQHDApOb3R0aW5naGFtMQ8wDQYDVQQKDAZTZXJ2
ZXIxEzARBgNVBAsMClByb2R1Y3Rpb24xFDASBgNVBAMMC3Rlc3QgY2xpZW50MIIB
IjANBgkqhkiG9w0BAQEFAAOCAQ8AMIIBCgKCAQEA3xCLbjuKYJp1AG8eJHTSp400
b2dyy2dOuQBth6PqtvWaul+RB10VJPiDoXfrpuLFsFB7TJxv/fl/bdsxo5nG7Phc
TAUFsloqKb0bqzGvxzHxDxF6Y5fDl+y9vte5DMUGvSN4w01XUeRMAtEF97xbNNHw
u3YPgBY6DipSSyWzhd0idJ7mmeniuukobFKPxoIoX1h3WF7gox1nM6/qv7DQh1SD
y2ILe7qet2JFOjvEUnbziV7LgUCsb0n5wMoVzBhkJ05abuiMyWolVORVD0B2v//5
+ex+qwyWMgamIy1ZEsAN3sY+cNpzDMIHeUdEQZqfDOenYKKmX2uKdO6zOonq/wID
AQABo3sweTAJBgNVHRMEAjAAMCwGCWCGSAGG+EIBDQQfFh1PcGVuU1NMIEdlbmVy
YXRlZCBDZXJ0aWZpY2F0ZTAdBgNVHQ4EFgQUd6IGIv8SO5xTdhJnVBHEZAQloWEw
HwYDVR0jBBgwFoAUGHWgitoWJ9xKAbzxC+0rwstOKdAwDQYJKoZIhvcNAQELBQAD
ggEBAAa7YYxmNkMX/2v6UgBUus+X0LM9exaQflmR7iqK9wacQbYMrdaRlJKaozzt
MFWut87q8xOkk0g4I2hOp4yRD6nRZv+v6B6a8klAcJWKq8WETJQFk95WRNAoeGyh
lxkZmfySk5iLdKNm3RSCgvkJTn0HT7njNakVI3OVKmHW9N0NC+EVyMytURd+s2xc
lFd0FeLQPyJm6EA4OwSYx9+s9Jf3V1PWz8P5QIFK5OpEUYj4ORlv0NhxqZgIK0sG
DJ1MoMtpVgcYGBAzGXtfT2ocx62bpNVm0sqjRswDzRe3nEjL83+O/rA01+6aITpW
DxCHjaD3n5UwRpjOBWCFKli/rVc=
-----END CERTIFICATE-----
