Certificate:
    Data:
        Version: 3 (0x2)
        Serial Number: 2 (0x2)
        Signature Algorithm: sha256WithRSAEncryption
        Issuer: C=GB, ST=Derbyshire, O=Paho Project, OU=Testing, CN=Signing CA
        Validity
            Not Before: Jul 13 10:56:00 2026 GMT
            Not After : Jul 12 10:56:00 2031 GMT
        Subject: C=GB, ST=Nottinghamshire, L=Nottingham, O=Server, OU=Production, CN=test client
        Subject Public Key Info:
            Public Key Algorithm: rsaEncryption
                Public-Key: (2048 bit)
                Modulus:
                    00:e1:09:a4:b3:90:de:40:71:0f:72:ce:5b:29:a5:
                    81:35:bd:cf:f2:9e:24:cc:4a:ed:9a:b7:c9:cf:5a:
                    76:e7:7a:57:86:92:87:74:52:53:9b:94:b8:ce:53:
                    78:2f:4f:2b:56:88:d2:5c:79:0a:39:be:cb:d8:a6:
                    93:1a:82:ad:b8:a4:9d:92:14:fe:fc:64:be:9d:cd:
                    b2:f0:ef:cf:57:f6:c5:50:7b:99:e3:e4:b3:d8:a6:
                    1b:4e:57:3a:5e:d5:50:bc:30:d4:c2:f6:c7:34:8c:
                    f5:c8:a6:75:c3:45:84:8c:dc:0b:33:60:2d:c8:bd:
                    a1:ab:34:74:1e:81:d7:ef:0a:1e:a2:46:25:39:5a:
                    ff:78:c3:4c:2b:a6:c7:b0:8b:55:3e:69:db:70:e7:
                    56:41:b5:68:2d:4f:f4:8d:48:7d:d4:62:1e:2f:1b:
                    0e:c1:b3:a0:e2:34:49:76:6a:a7:c8:b1:53:64:f4:
                    3b:cd:46:50:67:65:d1:46:d8:fa:55:32:d5:c7:31:
                    72:6a:19:d4:15:1b:bc:5a:d3:9c:08:3c:7d:72:c0:
                    80:08:f5:42:b4:52:3f:f8:a2:fc:f4:d0:c0:e1:e4:
                    a7:52:a2:2b:69:a4:14:d4:a4:a0:13:2c:bd:64:6c:
                    a2:47:dd:71:d6:5e:df:cc:8f:ed:40:9e:f0:34:72:
                    86:55
                Exponent: 65537 (0x10001)
        X509v3 extensions:
            X509v3 Basic Constraints: 
                CA:FALSE
            Netscape Comment: 
                OpenSSL Generated Certificate
            X509v3 Subject Key Identifier: 
                CB:2D:8D:13:2D:1D:B2:00:CF:E7:29:E7:DD:C4:24:FB:AA:96:E7:9B
            X509v3 Authority Key Identifier: 
                41:EB:9F:5B:4C:1C:16:2B:ED:7B:A3:74:34:9C:4B:13:8D:67:C7:76
    Signature Algorithm: sha256WithRSAEncryption
    Signature Value:
        5b:80:31:85:67:86:be:20:3e:c2:5c:44:a7:84:7c:d5:2b:ce:
        ae:9a:3d:f8:82:83:97:55:c8:1a:9a:7d:f8:7e:1a:94:bf:42:
        4a:f8:d0:d3:52:92:d7:22:9b:28:24:22:cf:23:f1:2d:ec:a7:
        ba:c1:91:6f:31:4e:d8:1e:85:7c:8b:ce:dc:c5:ac:9f:57:12:
        55:6e:20:e0:46:bf:25:45:63:07:9e:ed:83:f8:13:b6:48:07:
        8a:32:ce:db:e6:cc:a9:7b:de:80:fe:a2:78:3f:12:f9:3d:53:
        68:8a:47:5e:3c:a2:f2:70:d9:d4:e1:59:40:14:e1:19:0b:d6:
        21:19:23:9f:bb:82:bf:eb:d9:2f:c0:ae:59:5d:97:d3:1e:96:
        3b:9b:42:f0:d5:e1:e6:78:35:2c:83:47:bd:33:b0:f6:e6:cf:
        02:b1:d6:72:90:d3:47:f0:ac:ac:7d:48:ff:e4:09:1c:78:94:
        41:da:ed:95:c5:35:3c:2d:7f:c6:fa:41:67:c0:9a:d7:a1:84:
        c5:b4:d0:b3:d0:71:9d:1a:95:c0:f2:8a:d3:41:4a:fb:de:b7:
        72:5b:e6:bc:a9:19:88:23:ea:0e:62:d8:bf:dd:77:4b:76:3b:
        90:d8:b6:c2:30:27:2d:1f:66:c0:80:a5:3c:1b:2d:b7:db:a2:
        1f:97:8b:1f
-----BEGIN CERTIFICATE-----
MIIDzjCCAragAwIBAgIBAjANBgkqhkiG9w0BAQsFADBgMQswCQYDVQQGEwJHQjET
MBEGA1UECAwKRGVyYnlzaGlyZTEVMBMGA1UECgwMUGFobyBQcm9qZWN0MRAwDgYD
VQQLDAdUZXN0aW5nMRMwEQYDVQQDDApTaWduaW5nIENBMB4XDTI2MDcxMzEwNTYw
MFoXDTMxMDcxMjEwNTYwMFoweDELMAkGA1UEBhMCR0IxGDAWBgNVBAgMD05vdHRp
bmdoYW1zaGlyZTETMBEGA1UEBwwKTm90dGluZ2hhbTEPMA0GA1UECgwGU2VydmVy
MRMwEQYDVQQLDApQcm9kdWN0aW9uMRQwEgYDVQQDDAt0ZXN0IGNsaWVudDCCASIw
DQYJKoZIhvcNAQEBBQADggEPADCCAQoCggEBAOEJpLOQ3kBxD3LOWymlgTW9z/Ke
JMxK7Zq3yc9adud6V4aSh3RSU5uUuM5TeC9PK1aI0lx5Cjm+y9imkxqCrbiknZIU
/vxkvp3NsvDvz1f2xVB7mePks9imG05XOl7VULww1ML2xzSM9cimdcNFhIzcCzNg
Lci9oas0dB6B1+8KHqJGJTla/3jDTCumx7CLVT5p23DnVkG1aC1P9I1IfdRiHi8b
DsGzoOI0SXZqp8ixU2T0O81GUGdl0UbY+lUy1ccxcmoZ1BUbvFrTnAg8fXLAgAj1
QrRSP/ii/PTQwOHkp1KiK2mkFNSkoBMsvWRsokfdcdZe38yP7UCe8DRyhlUCAwEA
AaN7MHkwCQYDVR0TBAIwADAsBglghkgBhvhCAQ0EHxYdT3BlblNTTCBHZW5lcmF0
ZWQgQ2VydGlmaWNhdGUwHQYDVR0OBBYEFMstjRMtHbIAz+cp593EJPuqluebMB8G
A1UdIwQYMBaAFEHrn1tMHBYr7XujdDScSxONZ8d2MA0GCSqGSIb3DQEBCwUAA4IB
AQBbgDGFZ4a+ID7CXESnhHzVK86umj34goOXVcgamn34fhqUv0JK+NDTUpLXIpso
JCLPI/Et7Ke6wZFvMU7YHoV8i87cxayfVxJVbiDgRr8lRWMHnu2D+BO2SAeKMs7b
5sype96A/qJ4PxL5PVNoikdePKLycNnU4VlAFOEZC9YhGSOfu4K/69kvwK5ZXZfT
HpY7m0Lw1eHmeDUsg0e9M7D25s8CsdZykNNH8KysfUj/5AkceJRB2u2VxTU8LX/G
+kFnwJrXoYTFtNCz0HGdGpXA8orTQUr73rdyW+a8qRmII+oOYti/3XdLdjuQ2LbC
MCctH2bAgKU8Gy2326Ifl4sf
-----END CERTIFICATE-----
