Certificate:
    Data:
        Version: 3 (0x2)
        Serial Number: 4 (0x4)
        Signature Algorithm: sha256WithRSAEncryption
        Issuer: C=GB, ST=Derbyshire, O=Paho Project, OU=Testing, CN=Signing CA
        Validity
            Not Before: Jul 13 10:56:00 2026 GMT
            Not After : Jul 12 10:56:00 2031 GMT
        Subject: C=GB, ST=Nottinghamshire, L=Nottingham, O=Server, OU=Production, CN=test client with password
        Subject Public Key Info:
            Public Key Algorithm: rsaEncryption
                Public-Key: (2048 bit)
                Modulus:
                    00:a6:e0:36:4b:73:62:80:ae:81:13:22:80:82:1e:
                    06:65:91:8d:bc:c4:d9:4d:4b:31:db:11:4f:ff:75:
                    0f:9a:5f:d4:91:f9:2a:e0:7b:69:b0:96:b1:95:53:
                    3c:4f:7e:58:2e:c7:55:e6:06:42:60:8c:ba:eb:a8:
                    b4:be:4a:06:b5:6f:c9:99:b2:f3:a3:33:9f:18:aa:
                    f9:31:b3:9b:32:fa:ad:0b:ef:d6:45:76:1c:27:82:
                    ba:7a:cf:b0:11:41:58:7d:51:1f:41:56:e8:4c:a0:
                    3f:40:ac:ef:d0:83:f8:6c:c4:cd:89:26:fe:78:b8:
                    aa:45:5d:75:25:e4:74:3d:c2:25:36:bb:f1:ab:dc:
                    24:e0:a0:f7:59:5b:6b:ea:eb:b9:99:5c:81:6b:95:
                    dc:99:67:0d:48:5e:50:6b:e2:68:d7:5d:21:c7:f7:
                    90:fe:38:57:ad:bb:f1:e1:9a:5b:d0:5d:9c:6a:db:
                    a0:7b:c0:c1:b3:a3:78:8d:56:74:fe:37:13:b4:34:
                    b9:2f:71:fd:24:a2:bf:d2:7d:f5:19:c0:5d:56:3b:
                    c0:91:39:62:8f:61:9c:08:d3:57:30:1c:c6:ac:75:
                    1d:a4:a5:23:92:06:58:d2:2f:ef:eb:cb:ec:27:43:
                    1c:9b:c8:89:1b:6e:70:e5:29:f5:f5:d7:f2:83:f2:
                    51:47
                Exponent: 65537 (0x10001)
        X509v3 extensions:
            X509v3 Basic Constraints: 
                CA:FALSE
            Netscape Comment: 
                OpenSSL Generated Certificate
            X509v3 Subject Key Identifier: 
                E5:26:21:93:E9:77:05:C1:4A:34:03:6A:46:5B:8B:F6:BD:7B:95:A8
            X509v3 Authority Key Identifier: 
                41:EB:9F:5B:4C:1C:16:2B:ED:7B:A3:74:34:9C:4B:13:8D:67:C7:76
    Signature Algorithm: sha256WithRSAEncryption
    Signature Value:
        a1:9d:a8:d1:75:c2:79:7d:23:49:16:bf:10:5b:05:d8:0f:f2:
        20:7a:52:f4:c7:04:07:a3:5a:c2:d1:4c:d1:a3:0b:d9:b8:1b:
        45:2c:29:ee:d9:d9:41:97:ac:21:fb:e2:b5:c5:8c:1b:99:5f:
        0d:8d:1c:79:f3:bc:19:88:5d:03:62:d2:34:1d:96:0b:16:b2:
        3a:d9:37:1c:5a:41:53:63:6e:4e:0a:c3:4a:52:8f:50:56:86:
        33:76:75:5a:e9:08:30:f4:fb:f8:b7:ba:79:b1:71:01:4f:30:
        75:1f:ee:00:ae:bf:38:d2:25:ee:a8:60:b6:c8:06:74:ab:b4:
        45:b9:a1:d1:18:d9:4e:d5:1e:7a:c3:9e:88:fe:60:31:ae:e2:
        65:10:92:06:34:3f:ab:27:0c:79:a2:f0:5d:b6:41:84:6c:6c:
        7f:55:1e:53:1b:ad:33:79:a7:8c:91:e0:0d:9d:b3:8e:f6:3e:
        d6:44:6b:ba:99:42:99:7c:1e:9d:c3:5b:7c:2f:fc:2c:c5:96:
        b5:a8:ae:fd:71:60:27:23:92:09:04:2a:d5:f2:e8:0f:0c:b6:
        c8:b8:02:a0:4a:a6:72:2a:46:0f:a9:34:9f:af:d6:0d:6f:a0:
        15:dd:6e:af:71:e6:89:b4:4a:1e:b9:0d:88:93:c9:24:5e:f2:
        b7:2e:45:72
-----BEGIN CERTIFICATE-----
MIID3TCCAsWgAwIBAgIBBDANBgkqhkiG9w0BAQsFADBgMQswCQYDVQQGEwJHQjET
MBEGA1UECAwKRGVyYnlzaGlyZTEVMBMGA1UECgwMUGFobyBQcm9qZWN0MRAwDgYD
VQQLDAdUZXN0aW5nMRMwEQYDVQQDDApTaWduaW5nIENBMB4XDTI2MDcxMzEwNTYw
MFoXDTMxMDcxMjEwNTYwMFowgYYxCzAJBgNVBAYTAkdCMRgwFgYDVQQIDA9Ob3R0
aW5naGFtc2hpcmUxEzARBgNVBAcMCk5vdHRpbmdoYW0xDzANBgNVBAoMBlNlcnZl
cjETMBEGA1UECwwKUHJvZHVjdGlvbjEiMCAGA1UEAwwZdGVzdCBjbGllbnQgd2l0
aCBwYXNzd29yZDCCASIwDQYJKoZIhvcNAQEBBQADggEPADCCAQoCggEBAKbgNktz
YoCugRMigIIeBmWRjbzE2U1LMdsRT/91D5pf1JH5KuB7abCWsZVTPE9+WC7HVeYG
QmCMuuuotL5KBrVvyZmy86Mznxiq+TGzmzL6rQvv1kV2HCeCunrPsBFBWH1RH0FW
6EygP0Cs79CD+GzEzYkm/ni4qkVddSXkdD3CJTa78avcJOCg91lba+rruZlcgWuV
3JlnDUheUGviaNddIcf3kP44V6278eGaW9BdnGrboHvAwbOjeI1WdP43E7Q0uS9x
/SSiv9J99RnAXVY7wJE5Yo9hnAjTVzAcxqx1HaSlI5IGWNIv7+vL7CdDHJvIiRtu
cOUp9fXX8oPyUUcCAwEAAaN7MHkwCQYDVR0TBAIwADAsBglghkgBhvhCAQ0EHxYd
T3BlblNTTCBHZW5lcmF0ZWQgQ2VydGlmaWNhdGUwHQYDVR0OBBYEFOUmIZPpdwXB
SjQDakZbi/a9e5WoMB8GA1UdIwQYMBaAFEHrn1tMHBYr7XujdDScSxONZ8d2MA0G
CSqGSIb3DQEBCwUAA4IBAQChnajRdcJ5fSNJFr8QWwXYD/IgelL0xwQHo1rC0UzR
owvZuBtFLCnu2dlBl6wh++K1xYwbmV8NjRx587wZiF0DYtI0HZYLFrI62TccWkFT
Y25OCsNKUo9QVoYzdnVa6Qgw9Pv4t7p5sXEBTzB1H+4Arr840iXuqGC2yAZ0q7RF
uaHRGNlO1R56w56I/mAxruJlEJIGND+rJwx5ovBdtkGEbGx/VR5TG60zeaeMkeAN
nbOO9j7WRGu6mUKZfB6dw1t8L/wsxZa1qK79cWAnI5IJBCrV8ugPDLbIuAKgSqZy
KkYPqTSfr9YNb6AV3W6vceaJtEoeuQ2Ik8kkXvK3LkVy
-----END CERTIFICATE-----
