Certificate:
    Data:
        Version: 3 (0x2)
        Serial Number: 1 (0x1)
        Signature Algorithm: sha256WithRSAEncryption
        Issuer: C=GB, ST=Derbyshire, O=Paho Project, OU=Testing, CN=Signing CA
        Validity
            Not Before: Jul 15 15:24:05 2026 GMT
            Not After : Nov 15 15:24:05 3025 GMT
        Subject: C=GB, ST=Nottinghamshire, L=Nottingham, O=Server, OU=Production, CN=localhost
        Subject Public Key Info:
            Public Key Algorithm: rsaEncryption
                Public-Key: (2048 bit)
                Modulus:
                    00:bb:04:4c:f0:09:35:b6:07:28:63:7f:cf:28:de:
                    ab:f4:6a:f1:fd:82:ae:be:dc:58:a0:d5:da:14:69:
                    22:9d:9c:c1:cd:38:ee:ee:14:a2:12:aa:b9:77:34:
                    f0:25:02:c6:8b:21:7d:23:db:59:73:59:ba:6c:34:
                    7f:b5:61:4a:b9:e4:78:6d:0a:a4:d8:53:fc:b1:bd:
                    2d:64:a9:c2:47:83:9f:99:2c:b7:3c:de:a3:ff:de:
                    98:4e:39:eb:f9:a2:3e:cf:79:a7:e7:3b:9d:ae:99:
                    79:ea:49:d1:f1:43:ac:c3:94:54:14:a4:44:fd:b8:
                    0a:7d:0f:dc:68:63:2a:3e:c5:4d:a6:00:f7:11:9f:
                    68:60:ed:64:1c:bc:7b:37:2c:5b:6e:b1:28:11:fc:
                    07:14:db:2a:99:b1:94:1d:aa:aa:90:8b:84:9b:83:
                    c2:aa:d1:18:49:ba:27:a0:9d:0c:4e:fc:95:98:bb:
                    86:b6:8e:52:70:f0:ae:03:97:ab:24:33:63:af:6d:
                    aa:0a:a4:2a:29:fe:ec:30:fe:f5:f0:3a:cf:d9:9b:
                    d1:d9:59:39:47:fe:ce:be:90:ce:67:d4:ee:3a:fc:
                    c3:bf:a0:a3:43:5c:25:b9:a0:99:54:3c:38:e1:82:
                    fe:3c:39:8b:5c:f1:95:fb:cb:ff:85:ae:1e:fc:28:
                    ac:a9
                Exponent: 65537 (0x10001)
        X509v3 extensions:
            X509v3 Basic Constraints: 
                CA:FALSE
            Netscape Comment: 
                OpenSSL Generated Certificate
            X509v3 Subject Key Identifier: 
                70:C1:18:9D:7C:FC:4B:98:D6:71:A9:A9:FA:AC:D8:F6:E1:65:2B:61
            X509v3 Authority Key Identifier: 
                18:75:A0:8A:DA:16:27:DC:4A:01:BC:F1:0B:ED:2B:C2:CB:4E:29:D0
    Signature Algorithm: sha256WithRSAEncryption
    Signature Value:
        18:08:00:b5:04:71:e0:61:b4:14:d6:d5:18:45:7d:91:c4:3d:
        3c:c2:6d:60:80:be:66:37:0b:c1:e7:2c:dd:a1:8e:a0:70:16:
        17:e6:e5:b1:12:9d:60:81:c2:82:24:3d:27:31:d9:bd:51:c4:
        33:09:7f:61:76:ba:ad:81:0c:47:a9:15:00:b9:e4:87:99:b1:
        a5:89:43:b8:b4:14:81:79:7a:0b:ed:21:f6:9d:39:e2:1e:10:
        34:bf:56:bb:cd:04:f6:27:fa:f7:54:d2:37:8d:21:3f:43:48:
        f5:64:b3:42:c7:f9:86:98:22:06:bb:68:49:97:e5:8c:88:f3:
        ac:e6:71:55:9a:9e:07:c7:a0:5f:00:80:ad:3b:ec:09:fd:f4:
        e7:63:88:f1:58:68:62:ec:1c:e0:bd:48:44:23:b1:39:49:a7:
        37:83:2a:b9:88:f8:12:6a:21:d8:0a:02:12:a8:98:98:1f:72:
        e6:c1:44:2d:53:ff:d4:8d:ed:0b:49:83:23:54:49:5e:1f:c6:
        47:d9:3a:38:bd:b6:3c:cc:73:ee:ea:6e:80:a9:a5:f7:cb:b1:
        63:f0:78:81:36:8a:4a:e3:90:c4:ad:a3:35:a2:21:60:64:7c:
        fc:8e:9d:ce:10:10:a9:bb:c1:2f:98:85:08:34:4f:23:c9:83:
        71:f2:f0:1e
-----BEGIN CERTIFICATE-----
MIIDzjCCAragAwIBAgIBATANBgkqhkiG9w0BAQsFADBgMQswCQYDVQQGEwJHQjET
MBEGA1UECAwKRGVyYnlzaGlyZTEVMBMGA1UECgwMUGFobyBQcm9qZWN0MRAwDgYD
VQQLDAdUZXN0aW5nMRMwEQYDVQQDDApTaWduaW5nIENBMCAXDTI2MDcxNTE1MjQw
NVoYDzMwMjUxMTE1MTUyNDA1WjB2MQswCQYDVQQGEwJHQjEYMBYGA1UECAwPTm90
dGluZ2hhbXNoaXJlMRMwEQYDVQQHDApOb3R0aW5naGFtMQ8wDQYDVQQKDAZTZXJ2
ZXIxEzARBgNVBAsMClByb2R1Y3Rpb24xEjAQBgNVBAMMCWxvY2FsaG9zdDCCASIw
DQYJKoZIhvcNAQEBBQADggEPADCCAQoCggEBALsETPAJNbYHKGN/zyjeq/Rq8f2C
rr7cWKDV2hRpIp2cwc047u4UohKquXc08CUCxoshfSPbWXNZumw0f7VhSrnkeG0K
pNhT/LG9LWSpwkeDn5kstzzeo//emE456/miPs95p+c7na6ZeepJ0fFDrMOUVBSk
RP24Cn0P3GhjKj7FTaYA9xGfaGDtZBy8ezcsW26xKBH8BxTbKpmxlB2qqpCLhJuD
wqrRGEm6J6CdDE78lZi7hraOUnDwrgOXqyQzY69tqgqkKin+7DD+9fA6z9mb0dlZ
OUf+zr6QzmfU7jr8w7+go0NcJbmgmVQ8OOGC/jw5i1zxlfvL/4WuHvworKkCAwEA
AaN7MHkwCQYDVR0TBAIwADAsBglghkgBhvhCAQ0EHxYdT3BlblNTTCBHZW5lcmF0
ZWQgQ2VydGlmaWNhdGUwHQYDVR0OBBYEFHDBGJ18/EuY1nGpqfqs2PbhZSthMB8G
A1UdIwQYMBaAFBh1oIraFifcSgG88QvtK8LLTinQMA0GCSqGSIb3DQEBCwUAA4IB
AQAYCAC1BHHgYbQU1tUYRX2RxD08wm1ggL5mNwvB5yzdoY6gcBYX5uWxEp1ggcKC
JD0nMdm9UcQzCX9hdrqtgQxHqRUAueSHmbGliUO4tBSBeXoL7SH2nTniHhA0v1a7
zQT2J/r3VNI3jSE/Q0j1ZLNCx/mGmCIGu2hJl+WMiPOs5nFVmp4Hx6BfAICtO+wJ
/fTnY4jxWGhi7BzgvUhEI7E5Sac3gyq5iPgSaiHYCgISqJiYH3LmwUQtU//Uje0L
SYMjVEleH8ZH2To4vbY8zHPu6m6AqaX3y7Fj8HiBNopK45DEraM1oiFgZHz8jp3O
EBCpu8EvmIUINE8jyYNx8vAe
-----END CERTIFICATE-----
