Certificate:
    Data:
        Version: 3 (0x2)
        Serial Number: 1 (0x1)
        Signature Algorithm: sha256WithRSAEncryption
        Issuer: C=GB, ST=Derbyshire, O=Paho Project, OU=Testing, CN=Signing CA
        Validity
            Not Before: Aug 20 00:00:00 2012 GMT
            Not After : Aug 21 00:00:00 2012 GMT
        Subject: C=GB, ST=Nottinghamshire, L=Nottingham, O=Server, OU=Production, CN=localhost
        Subject Public Key Info:
            Public Key Algorithm: rsaEncryption
                Public-Key: (2048 bit)
                Modulus:
                    00:91:ac:2f:15:1f:f4:2d:97:50:14:1a:32:51:25:
                    49:e0:ed:f0:72:21:12:48:a3:2d:5b:fd:70:e3:ec:
                    fb:1b:10:ee:7e:72:a4:f3:cf:67:cd:ca:e7:40:d0:
                    97:7e:73:5a:6f:be:e0:bb:93:ab:54:97:2a:68:94:
                    31:48:e1:9b:ef:5e:7a:5e:af:6c:bb:b3:a0:ca:64:
                    a8:12:53:4c:11:4d:e8:0f:67:ba:f6:30:62:49:0f:
                    73:56:47:4a:41:a2:32:1e:b2:c7:5e:68:d1:50:8a:
                    a6:35:db:d9:d1:36:f7:d3:02:73:d3:0a:db:a2:68:
                    c0:d7:59:35:ea:60:f7:35:4d:40:ae:4d:94:5e:55:
                    5f:6b:c9:30:03:d7:9e:ed:94:51:b9:43:2f:e6:04:
                    d5:e7:ed:7c:4b:49:f0:f2:47:94:2d:ce:3c:7f:c2:
                    92:fa:1d:3e:a2:47:e4:11:70:8e:05:2c:97:01:77:
                    37:b2:06:8e:b4:e4:ac:52:3b:e5:53:08:02:58:84:
                    c1:30:03:35:d6:8c:b0:cf:78:99:b8:8c:a2:4c:03:
                    07:8c:7e:dd:4f:c3:18:59:9b:b8:d4:a6:6a:55:20:
                    77:92:8b:09:a2:0c:7d:c3:5c:ea:8b:45:bd:5a:50:
                    cd:81:23:4b:b1:98:b0:33:83:4c:64:3f:1e:fc:59:
                    aa:db
                Exponent: 65537 (0x10001)
        X509v3 extensions:
            X509v3 Basic Constraints: 
                CA:FALSE
            Netscape Comment: 
                OpenSSL Generated Certificate
            X509v3 Subject Key Identifier: 
                FD:A2:1D:4B:2B:83:9E:F9:19:2D:BD:FB:A3:E3:54:74:29:70:61:AF
            X509v3 Authority Key Identifier: 
                41:EB:9F:5B:4C:1C:16:2B:ED:7B:A3:74:34:9C:4B:13:8D:67:C7:76
    Signature Algorithm: sha256WithRSAEncryption
    Signature Value:
        a6:d1:2b:7a:be:80:92:62:41:e9:8d:86:ba:21:9f:f2:57:7d:
        86:86:2c:2b:5d:92:18:4f:e1:de:13:17:5f:88:ff:a9:41:95:
        80:ab:f4:0d:f3:ed:67:be:83:fa:e7:41:cd:22:f2:14:c2:41:
        79:22:31:7f:23:8c:1d:e3:a5:ea:ca:b0:ce:2d:7f:e5:a5:10:
        ab:77:8b:06:c5:e5:bb:79:b1:ef:22:ed:88:d2:22:5d:fd:6d:
        1e:12:a3:82:89:1c:29:91:e8:f4:a8:e8:a5:74:5d:a2:24:3f:
        ee:90:4a:8e:e3:41:2e:b3:ff:9d:d1:b1:cf:5c:bd:6a:20:0c:
        85:37:4d:6d:e9:b4:29:c4:c5:d9:93:71:1f:1f:15:36:42:7d:
        c6:ee:cf:db:2b:ce:7e:eb:c6:a3:8d:77:bf:a0:28:61:b1:0b:
        a0:6e:23:ac:95:d9:dc:af:ff:cb:84:a2:19:fe:b0:ce:69:47:
        e5:4a:a6:f9:45:17:49:8b:33:59:c3:0a:d9:0e:56:a8:0f:03:
        61:58:de:b9:a8:a0:f0:c4:83:4b:66:69:f8:25:69:23:b1:c0:
        02:61:c7:da:a0:2b:7a:60:10:5f:bb:bd:07:fe:4d:86:69:c6:
        bd:1b:96:c2:bb:20:93:68:65:c3:97:d1:5d:a4:4f:f1:a0:8b:
        53:76:b7:ad
-----BEGIN CERTIFICATE-----
MIIDzDCCArSgAwIBAgIBATANBgkqhkiG9w0BAQsFADBgMQswCQYDVQQGEwJHQjET
MBEGA1UECAwKRGVyYnlzaGlyZTEVMBMGA1UECgwMUGFobyBQcm9qZWN0MRAwDgYD
VQQLDAdUZXN0aW5nMRMwEQYDVQQDDApTaWduaW5nIENBMB4XDTEyMDgyMDAwMDAw
MFoXDTEyMDgyMTAwMDAwMFowdjELMAkGA1UEBhMCR0IxGDAWBgNVBAgMD05vdHRp
bmdoYW1zaGlyZTETMBEGA1UEBwwKTm90dGluZ2hhbTEPMA0GA1UECgwGU2VydmVy
MRMwEQYDVQQLDApQcm9kdWN0aW9uMRIwEAYDVQQDDAlsb2NhbGhvc3QwggEiMA0G
CSqGSIb3DQEBAQUAA4IBDwAwggEKAoIBAQCRrC8VH/Qtl1AUGjJRJUng7fByIRJI
oy1b/XDj7PsbEO5+cqTzz2fNyudA0Jd+c1pvvuC7k6tUlypolDFI4ZvvXnper2y7
s6DKZKgSU0wRTegPZ7r2MGJJD3NWR0pBojIessdeaNFQiqY129nRNvfTAnPTCtui
aMDXWTXqYPc1TUCuTZReVV9ryTAD157tlFG5Qy/mBNXn7XxLSfDyR5Qtzjx/wpL6
HT6iR+QRcI4FLJcBdzeyBo605KxSO+VTCAJYhMEwAzXWjLDPeJm4jKJMAweMft1P
wxhZm7jUpmpVIHeSiwmiDH3DXOqLRb1aUM2BI0uxmLAzg0xkPx78WarbAgMBAAGj
ezB5MAkGA1UdEwQCMAAwLAYJYIZIAYb4QgENBB8WHU9wZW5TU0wgR2VuZXJhdGVk
IENlcnRpZmljYXRlMB0GA1UdDgQWBBT9oh1LK4Oe+Rktvfuj41R0KXBhrzAfBgNV
HSMEGDAWgBRB659bTBwWK+17o3Q0nEsTjWfHdjANBgkqhkiG9w0BAQsFAAOCAQEA
ptErer6AkmJB6Y2GuiGf8ld9hoYsK12SGE/h3hMXX4j/qUGVgKv0DfPtZ76D+udB
zSLyFMJBeSIxfyOMHeOl6sqwzi1/5aUQq3eLBsXlu3mx7yLtiNIiXf1tHhKjgokc
KZHo9KjopXRdoiQ/7pBKjuNBLrP/ndGxz1y9aiAMhTdNbem0KcTF2ZNxHx8VNkJ9
xu7P2yvOfuvGo413v6AoYbELoG4jrJXZ3K//y4SiGf6wzmlH5Uqm+UUXSYszWcMK
2Q5WqA8DYVjeuaig8MSDS2Zp+CVpI7HAAmHH2qAremAQX7u9B/5NhmnGvRuWwrsg
k2hlw5fRXaRP8aCLU3a3rQ==
-----END CERTIFICATE-----
