Certificate:
    Data:
        Version: 3 (0x2)
        Serial Number: 1 (0x1)
        Signature Algorithm: sha256WithRSAEncryption
        Issuer: C=GB, ST=Derbyshire, O=Paho Project, OU=Testing, CN=Signing CA
        Validity
            Not Before: Aug 20 00:00:00 2012 GMT
            Not After : Aug 21 00:00:00 2012 GMT
        Subject: C=GB, ST=Nottinghamshire, L=Nottingham, O=Server, OU=Production, CN=localhost
        Subject Public Key Info:
            Public Key Algorithm: rsaEncryption
                Public-Key: (2048 bit)
                Modulus:
                    00:bb:04:4c:f0:09:35:b6:07:28:63:7f:cf:28:de:
                    ab:f4:6a:f1:fd:82:ae:be:dc:58:a0:d5:da:14:69:
                    22:9d:9c:c1:cd:38:ee:ee:14:a2:12:aa:b9:77:34:
                    f0:25:02:c6:8b:21:7d:23:db:59:73:59:ba:6c:34:
                    7f:b5:61:4a:b9:e4:78:6d:0a:a4:d8:53:fc:b1:bd:
                    2d:64:a9:c2:47:83:9f:99:2c:b7:3c:de:a3:ff:de:
                    98:4e:39:eb:f9:a2:3e:cf:79:a7:e7:3b:9d:ae:99:
                    79:ea:49:d1:f1:43:ac:c3:94:54:14:a4:44:fd:b8:
                    0a:7d:0f:dc:68:63:2a:3e:c5:4d:a6:00:f7:11:9f:
                    68:60:ed:64:1c:bc:7b:37:2c:5b:6e:b1:28:11:fc:
                    07:14:db:2a:99:b1:94:1d:aa:aa:90:8b:84:9b:83:
                    c2:aa:d1:18:49:ba:27:a0:9d:0c:4e:fc:95:98:bb:
                    86:b6:8e:52:70:f0:ae:03:97:ab:24:33:63:af:6d:
                    aa:0a:a4:2a:29:fe:ec:30:fe:f5:f0:3a:cf:d9:9b:
                    d1:d9:59:39:47:fe:ce:be:90:ce:67:d4:ee:3a:fc:
                    c3:bf:a0:a3:43:5c:25:b9:a0:99:54:3c:38:e1:82:
                    fe:3c:39:8b:5c:f1:95:fb:cb:ff:85:ae:1e:fc:28:
                    ac:a9
                Exponent: 65537 (0x10001)
        X509v3 extensions:
            X509v3 Basic Constraints: 
                CA:FALSE
            Netscape Comment: 
                OpenSSL Generated Certificate
            X509v3 Subject Key Identifier: 
                70:C1:18:9D:7C:FC:4B:98:D6:71:A9:A9:FA:AC:D8:F6:E1:65:2B:61
            X509v3 Authority Key Identifier: 
                18:75:A0:8A:DA:16:27:DC:4A:01:BC:F1:0B:ED:2B:C2:CB:4E:29:D0
    Signature Algorithm: sha256WithRSAEncryption
    Signature Value:
        82:18:6c:04:86:1f:79:22:0a:bd:95:23:c5:80:c5:eb:e4:e1:
        34:45:7c:2b:fa:25:06:0f:d7:e2:b7:ef:7b:d4:6d:73:64:ba:
        3f:54:4d:b5:68:95:27:6e:fb:76:1f:22:98:5e:9e:2e:27:b3:
        75:ed:d7:62:23:28:4f:94:de:06:36:cd:55:06:fe:ad:22:47:
        5e:28:a2:62:3d:56:ab:5f:5c:0d:f2:5d:2c:09:9c:52:a3:5c:
        ee:55:03:2f:30:83:b5:ff:cd:a6:a5:a5:da:b4:8c:02:09:d5:
        be:a7:f4:3d:bf:bb:04:ea:2d:11:94:37:6f:3d:6e:18:2c:c6:
        1e:1a:66:c4:8e:26:91:51:ab:c1:73:36:0f:c6:a6:85:8e:34:
        a2:02:c5:e2:d8:fe:df:f3:c2:6f:4b:83:23:d5:b3:bb:dd:d2:
        c1:a8:b5:7d:59:58:ce:4a:71:42:ca:42:e8:d7:a1:92:e4:9d:
        57:35:5e:5d:7c:49:b9:da:c6:19:a3:fb:f8:a7:50:cd:55:93:
        c7:ce:09:ec:dc:b4:c3:3e:6d:7e:41:b6:cc:ad:53:b7:b4:66:
        4e:84:01:3f:b2:41:84:db:f0:ac:a0:11:4e:7b:cc:a9:96:2e:
        49:b7:df:04:16:f5:b8:97:4d:d8:d4:3d:0a:e6:e4:de:b8:35:
        45:38:0a:00
-----BEGIN CERTIFICATE-----
MIIDzDCCArSgAwIBAgIBATANBgkqhkiG9w0BAQsFADBgMQswCQYDVQQGEwJHQjET
MBEGA1UECAwKRGVyYnlzaGlyZTEVMBMGA1UECgwMUGFobyBQcm9qZWN0MRAwDgYD
VQQLDAdUZXN0aW5nMRMwEQYDVQQDDApTaWduaW5nIENBMB4XDTEyMDgyMDAwMDAw
MFoXDTEyMDgyMTAwMDAwMFowdjELMAkGA1UEBhMCR0IxGDAWBgNVBAgMD05vdHRp
bmdoYW1zaGlyZTETMBEGA1UEBwwKTm90dGluZ2hhbTEPMA0GA1UECgwGU2VydmVy
MRMwEQYDVQQLDApQcm9kdWN0aW9uMRIwEAYDVQQDDAlsb2NhbGhvc3QwggEiMA0G
CSqGSIb3DQEBAQUAA4IBDwAwggEKAoIBAQC7BEzwCTW2Byhjf88o3qv0avH9gq6+
3Fig1doUaSKdnMHNOO7uFKISqrl3NPAlAsaLIX0j21lzWbpsNH+1YUq55HhtCqTY
U/yxvS1kqcJHg5+ZLLc83qP/3phOOev5oj7PeafnO52umXnqSdHxQ6zDlFQUpET9
uAp9D9xoYyo+xU2mAPcRn2hg7WQcvHs3LFtusSgR/AcU2yqZsZQdqqqQi4Sbg8Kq
0RhJuiegnQxO/JWYu4a2jlJw8K4Dl6skM2OvbaoKpCop/uww/vXwOs/Zm9HZWTlH
/s6+kM5n1O46/MO/oKNDXCW5oJlUPDjhgv48OYtc8ZX7y/+Frh78KKypAgMBAAGj
ezB5MAkGA1UdEwQCMAAwLAYJYIZIAYb4QgENBB8WHU9wZW5TU0wgR2VuZXJhdGVk
IENlcnRpZmljYXRlMB0GA1UdDgQWBBRwwRidfPxLmNZxqan6rNj24WUrYTAfBgNV
HSMEGDAWgBQYdaCK2hYn3EoBvPEL7SvCy04p0DANBgkqhkiG9w0BAQsFAAOCAQEA
ghhsBIYfeSIKvZUjxYDF6+ThNEV8K/olBg/X4rfve9Rtc2S6P1RNtWiVJ277dh8i
mF6eLiezde3XYiMoT5TeBjbNVQb+rSJHXiiiYj1Wq19cDfJdLAmcUqNc7lUDLzCD
tf/NpqWl2rSMAgnVvqf0Pb+7BOotEZQ3bz1uGCzGHhpmxI4mkVGrwXM2D8amhY40
ogLF4tj+3/PCb0uDI9Wzu93Swai1fVlYzkpxQspC6NehkuSdVzVeXXxJudrGGaP7
+KdQzVWTx84J7Ny0wz5tfkG2zK1Tt7RmToQBP7JBhNvwrKARTnvMqZYuSbffBBb1
uJdN2NQ9Cubk3rg1RTgKAA==
-----END CERTIFICATE-----
