Certificate:
    Data:
        Version: 3 (0x2)
        Serial Number: 1 (0x1)
        Signature Algorithm: sha256WithRSAEncryption
        Issuer: C=GB, ST=Derbyshire, O=Paho Project, OU=Testing, CN=Signing CA
        Validity
            Not Before: Jul 13 10:56:00 2026 GMT
            Not After : Jul 12 10:56:00 2031 GMT
        Subject: C=GB, ST=Nottinghamshire, L=Nottingham, O=Server, OU=Production, CN=localhost
        Subject Public Key Info:
            Public Key Algorithm: rsaEncryption
                Public-Key: (2048 bit)
                Modulus:
                    00:91:ac:2f:15:1f:f4:2d:97:50:14:1a:32:51:25:
                    49:e0:ed:f0:72:21:12:48:a3:2d:5b:fd:70:e3:ec:
                    fb:1b:10:ee:7e:72:a4:f3:cf:67:cd:ca:e7:40:d0:
                    97:7e:73:5a:6f:be:e0:bb:93:ab:54:97:2a:68:94:
                    31:48:e1:9b:ef:5e:7a:5e:af:6c:bb:b3:a0:ca:64:
                    a8:12:53:4c:11:4d:e8:0f:67:ba:f6:30:62:49:0f:
                    73:56:47:4a:41:a2:32:1e:b2:c7:5e:68:d1:50:8a:
                    a6:35:db:d9:d1:36:f7:d3:02:73:d3:0a:db:a2:68:
                    c0:d7:59:35:ea:60:f7:35:4d:40:ae:4d:94:5e:55:
                    5f:6b:c9:30:03:d7:9e:ed:94:51:b9:43:2f:e6:04:
                    d5:e7:ed:7c:4b:49:f0:f2:47:94:2d:ce:3c:7f:c2:
                    92:fa:1d:3e:a2:47:e4:11:70:8e:05:2c:97:01:77:
                    37:b2:06:8e:b4:e4:ac:52:3b:e5:53:08:02:58:84:
                    c1:30:03:35:d6:8c:b0:cf:78:99:b8:8c:a2:4c:03:
                    07:8c:7e:dd:4f:c3:18:59:9b:b8:d4:a6:6a:55:20:
                    77:92:8b:09:a2:0c:7d:c3:5c:ea:8b:45:bd:5a:50:
                    cd:81:23:4b:b1:98:b0:33:83:4c:64:3f:1e:fc:59:
                    aa:db
                Exponent: 65537 (0x10001)
        X509v3 extensions:
            X509v3 Basic Constraints: 
                CA:FALSE
            Netscape Comment: 
                OpenSSL Generated Certificate
            X509v3 Subject Key Identifier: 
                FD:A2:1D:4B:2B:83:9E:F9:19:2D:BD:FB:A3:E3:54:74:29:70:61:AF
            X509v3 Authority Key Identifier: 
                41:EB:9F:5B:4C:1C:16:2B:ED:7B:A3:74:34:9C:4B:13:8D:67:C7:76
    Signature Algorithm: sha256WithRSAEncryption
    Signature Value:
        7f:ce:05:3f:e4:f2:58:a5:6d:59:a2:89:f9:1d:55:e2:83:0e:
        80:75:17:b4:92:2a:35:4c:ba:35:21:93:05:d3:87:78:f8:82:
        d2:04:a2:63:40:5e:b6:72:6a:4e:d6:14:0a:77:5f:20:5c:10:
        69:c4:ae:a9:f0:29:f3:61:ce:8a:32:4b:fd:71:c2:05:1f:07:
        b3:16:e2:41:bd:e1:39:8a:57:b4:da:85:70:89:61:8a:9f:26:
        15:a3:ba:24:80:6a:55:98:f9:85:08:02:f3:05:d9:f5:3e:7c:
        a2:d0:ce:c7:54:a7:93:2a:4a:ce:b3:52:ed:b3:43:4b:bd:1f:
        81:f2:3f:59:b8:b2:6c:e1:9f:03:98:a0:71:3f:cf:da:00:96:
        10:cf:af:29:f8:57:36:ea:9a:93:5b:d9:79:7c:c2:1e:79:47:
        47:03:7c:e5:1f:33:6f:1d:a1:a0:88:ea:cf:6c:f5:c7:37:71:
        5c:48:99:39:dd:df:ac:39:6d:bd:eb:df:26:f1:fd:5e:d5:ec:
        43:94:17:5d:aa:3e:e4:29:22:e4:26:e3:56:25:32:81:6d:3e:
        4f:d2:83:05:0d:9d:ad:d7:6a:c7:67:9a:7e:ae:10:4e:bc:e7:
        68:88:89:57:1e:22:bd:a5:5c:5d:ba:05:f6:ac:c5:b1:e5:7f:
        ac:35:f4:92
-----BEGIN CERTIFICATE-----
MIIDzDCCArSgAwIBAgIBATANBgkqhkiG9w0BAQsFADBgMQswCQYDVQQGEwJHQjET
MBEGA1UECAwKRGVyYnlzaGlyZTEVMBMGA1UECgwMUGFobyBQcm9qZWN0MRAwDgYD
VQQLDAdUZXN0aW5nMRMwEQYDVQQDDApTaWduaW5nIENBMB4XDTI2MDcxMzEwNTYw
MFoXDTMxMDcxMjEwNTYwMFowdjELMAkGA1UEBhMCR0IxGDAWBgNVBAgMD05vdHRp
bmdoYW1zaGlyZTETMBEGA1UEBwwKTm90dGluZ2hhbTEPMA0GA1UECgwGU2VydmVy
MRMwEQYDVQQLDApQcm9kdWN0aW9uMRIwEAYDVQQDDAlsb2NhbGhvc3QwggEiMA0G
CSqGSIb3DQEBAQUAA4IBDwAwggEKAoIBAQCRrC8VH/Qtl1AUGjJRJUng7fByIRJI
oy1b/XDj7PsbEO5+cqTzz2fNyudA0Jd+c1pvvuC7k6tUlypolDFI4ZvvXnper2y7
s6DKZKgSU0wRTegPZ7r2MGJJD3NWR0pBojIessdeaNFQiqY129nRNvfTAnPTCtui
aMDXWTXqYPc1TUCuTZReVV9ryTAD157tlFG5Qy/mBNXn7XxLSfDyR5Qtzjx/wpL6
HT6iR+QRcI4FLJcBdzeyBo605KxSO+VTCAJYhMEwAzXWjLDPeJm4jKJMAweMft1P
wxhZm7jUpmpVIHeSiwmiDH3DXOqLRb1aUM2BI0uxmLAzg0xkPx78WarbAgMBAAGj
ezB5MAkGA1UdEwQCMAAwLAYJYIZIAYb4QgENBB8WHU9wZW5TU0wgR2VuZXJhdGVk
IENlcnRpZmljYXRlMB0GA1UdDgQWBBT9oh1LK4Oe+Rktvfuj41R0KXBhrzAfBgNV
HSMEGDAWgBRB659bTBwWK+17o3Q0nEsTjWfHdjANBgkqhkiG9w0BAQsFAAOCAQEA
f84FP+TyWKVtWaKJ+R1V4oMOgHUXtJIqNUy6NSGTBdOHePiC0gSiY0BetnJqTtYU
CndfIFwQacSuqfAp82HOijJL/XHCBR8HsxbiQb3hOYpXtNqFcIlhip8mFaO6JIBq
VZj5hQgC8wXZ9T58otDOx1SnkypKzrNS7bNDS70fgfI/WbiybOGfA5igcT/P2gCW
EM+vKfhXNuqak1vZeXzCHnlHRwN85R8zbx2hoIjqz2z1xzdxXEiZOd3frDltvevf
JvH9XtXsQ5QXXao+5Cki5CbjViUygW0+T9KDBQ2drddqx2eafq4QTrznaIiJVx4i
vaVcXboF9qzFseV/rDX0kg==
-----END CERTIFICATE-----
