Certificate:
    Data:
        Version: 3 (0x2)
        Serial Number: 2 (0x2)
        Signature Algorithm: sha256WithRSAEncryption
        Issuer: C=GB, ST=Derbyshire, L=Derby, O=Paho Project, OU=Testing, CN=Root CA
        Validity
            Not Before: Jul 13 10:56:00 2026 GMT
            Not After : Jul 12 10:56:00 2031 GMT
        Subject: C=GB, ST=Derbyshire, O=Paho Project, OU=Testing, CN=Alternative Signing CA
        Subject Public Key Info:
            Public Key Algorithm: rsaEncryption
                Public-Key: (2048 bit)
                Modulus:
                    00:b4:24:7f:e8:4a:07:4f:ae:dd:32:19:71:40:6b:
                    8d:b9:1d:cc:38:8e:41:6d:ef:4a:5a:2a:c7:0d:42:
                    1a:e2:c2:ac:51:24:38:e4:0a:42:d1:63:0f:8d:3b:
                    c6:f9:12:9e:41:d6:e3:28:35:91:c3:90:a8:74:75:
                    23:cd:55:60:a0:e6:b8:45:6c:35:6e:4b:f3:22:ec:
                    5d:a5:cb:ee:94:49:f0:0a:f8:e8:e4:55:12:1b:00:
                    8d:87:01:c0:8d:9c:20:76:c8:03:3c:00:a7:6d:be:
                    77:17:85:87:62:be:48:6d:8e:0c:64:e6:14:7f:2d:
                    e5:1a:c9:9a:96:1d:cd:b1:cb:b1:cb:c9:be:3f:04:
                    a7:67:6b:b0:e1:83:27:a2:69:8e:80:99:35:66:37:
                    90:b7:aa:4e:de:f8:1a:6f:14:22:0f:07:c8:21:78:
                    99:56:28:78:0b:5e:ac:b6:d9:dc:f0:18:d0:15:04:
                    38:5b:32:10:27:ce:80:53:bd:16:6f:e6:66:7c:52:
                    7f:96:50:43:4d:dc:65:58:80:db:64:85:e3:4d:47:
                    7c:9a:5a:02:7d:98:cf:24:02:51:a6:3b:ef:e9:f6:
                    c6:fd:7e:55:a9:9d:9b:f9:e9:9d:27:fc:4b:48:61:
                    9a:dd:e5:e5:ff:d9:81:45:1d:25:0c:42:9f:d1:10:
                    f2:13
                Exponent: 65537 (0x10001)
        X509v3 extensions:
            X509v3 Subject Key Identifier: 
                A7:74:63:76:B3:CF:CD:8D:47:E9:43:B7:A4:91:FC:04:0A:62:42:A8
            X509v3 Authority Key Identifier: 
                B5:90:39:D8:5B:05:5D:10:06:C9:A8:59:CB:4F:5A:E5:32:5B:26:A9
            X509v3 Basic Constraints: 
                CA:TRUE
    Signature Algorithm: sha256WithRSAEncryption
    Signature Value:
        6c:4c:2e:db:cc:64:18:cd:b6:9a:d7:b1:d1:bb:e1:4f:12:6c:
        e6:57:00:11:3f:60:56:16:59:eb:84:1e:20:4d:c7:14:60:75:
        d4:19:bb:26:b6:c4:88:59:11:2b:e0:08:50:e8:47:7f:02:23:
        9b:d5:e5:4f:3c:7f:35:1a:a9:9a:09:ae:60:b3:87:78:b8:2f:
        3d:13:9d:ab:b5:89:45:24:c5:5f:ad:17:91:cd:58:ac:81:ed:
        d3:e4:9c:d7:b1:d4:89:fc:9b:d8:51:1d:5b:e5:da:25:3b:c4:
        56:39:09:4e:9c:68:80:28:ce:ea:43:52:e8:71:d1:8b:ee:67:
        cd:a0:ef:52:74:a8:2a:7b:05:aa:cd:0a:fc:24:df:91:dd:27:
        2c:e7:ce:50:06:69:71:da:1f:ac:71:9d:d0:30:8b:3d:97:5a:
        7e:8b:31:1b:02:f0:bc:83:e1:94:b4:b6:96:b4:56:a9:06:dc:
        53:78:da:10:fc:78:3f:8c:c1:8d:0e:7d:4b:97:43:b9:29:a2:
        82:f5:14:66:9c:65:7f:cf:3b:f6:1c:5b:bd:90:4a:a9:61:4e:
        e6:80:8a:13:ef:c4:39:e5:06:76:44:be:89:62:0c:cb:8f:88:
        d0:c5:bf:fb:5e:4c:33:e2:0a:1e:6d:63:54:6a:6d:07:9c:59:
        d3:53:ba:fa
-----BEGIN CERTIFICATE-----
MIIDpDCCAoygAwIBAgIBAjANBgkqhkiG9w0BAQsFADBtMQswCQYDVQQGEwJHQjET
MBEGA1UECAwKRGVyYnlzaGlyZTEOMAwGA1UEBwwFRGVyYnkxFTATBgNVBAoMDFBh
aG8gUHJvamVjdDEQMA4GA1UECwwHVGVzdGluZzEQMA4GA1UEAwwHUm9vdCBDQTAe
Fw0yNjA3MTMxMDU2MDBaFw0zMTA3MTIxMDU2MDBaMGwxCzAJBgNVBAYTAkdCMRMw
EQYDVQQIDApEZXJieXNoaXJlMRUwEwYDVQQKDAxQYWhvIFByb2plY3QxEDAOBgNV
BAsMB1Rlc3RpbmcxHzAdBgNVBAMMFkFsdGVybmF0aXZlIFNpZ25pbmcgQ0EwggEi
MA0GCSqGSIb3DQEBAQUAA4IBDwAwggEKAoIBAQC0JH/oSgdPrt0yGXFAa425Hcw4
jkFt70paKscNQhriwqxRJDjkCkLRYw+NO8b5Ep5B1uMoNZHDkKh0dSPNVWCg5rhF
bDVuS/Mi7F2ly+6USfAK+OjkVRIbAI2HAcCNnCB2yAM8AKdtvncXhYdivkhtjgxk
5hR/LeUayZqWHc2xy7HLyb4/BKdna7DhgyeiaY6AmTVmN5C3qk7e+BpvFCIPB8gh
eJlWKHgLXqy22dzwGNAVBDhbMhAnzoBTvRZv5mZ8Un+WUENN3GVYgNtkheNNR3ya
WgJ9mM8kAlGmO+/p9sb9flWpnZv56Z0n/EtIYZrd5eX/2YFFHSUMQp/REPITAgMB
AAGjUDBOMB0GA1UdDgQWBBSndGN2s8/NjUfpQ7ekkfwECmJCqDAfBgNVHSMEGDAW
gBS1kDnYWwVdEAbJqFnLT1rlMlsmqTAMBgNVHRMEBTADAQH/MA0GCSqGSIb3DQEB
CwUAA4IBAQBsTC7bzGQYzbaa17HRu+FPEmzmVwARP2BWFlnrhB4gTccUYHXUGbsm
tsSIWREr4AhQ6Ed/AiOb1eVPPH81GqmaCa5gs4d4uC89E52rtYlFJMVfrReRzVis
ge3T5JzXsdSJ/JvYUR1b5dolO8RWOQlOnGiAKM7qQ1LocdGL7mfNoO9SdKgqewWq
zQr8JN+R3Scs585QBmlx2h+scZ3QMIs9l1p+izEbAvC8g+GUtLaWtFapBtxTeNoQ
/Hg/jMGNDn1Ll0O5KaKC9RRmnGV/zzv2HFu9kEqpYU7mgIoT78Q55QZ2RL6JYgzL
j4jQxb/7Xkwz4goebWNUam0HnFnTU7r6
-----END CERTIFICATE-----
