Certificate:
    Data:
        Version: 3 (0x2)
        Serial Number: 2 (0x2)
        Signature Algorithm: sha256WithRSAEncryption
        Issuer: C=GB, ST=Derbyshire, L=Derby, O=Paho Project, OU=Testing, CN=Root CA
        Validity
            Not Before: Jul 15 15:24:04 2026 GMT
            Not After : Nov 15 15:24:04 3025 GMT
        Subject: C=GB, ST=Derbyshire, O=Paho Project, OU=Testing, CN=Alternative Signing CA
        Subject Public Key Info:
            Public Key Algorithm: rsaEncryption
                Public-Key: (2048 bit)
                Modulus:
                    00:ab:2c:2c:37:55:fd:ac:74:16:4a:96:b5:72:2a:
                    ac:92:3e:12:d7:38:98:ae:f6:69:1b:37:6b:bb:06:
                    ce:14:b2:4e:f4:89:e2:04:89:c7:d7:6d:ef:64:55:
                    b2:68:8b:21:6b:5c:11:04:13:ad:11:99:3a:84:a4:
                    21:fb:15:31:9c:08:01:26:92:8d:29:62:0c:dd:bd:
                    6c:4f:ee:47:ef:40:42:2d:b8:0e:04:af:01:55:1f:
                    e9:50:fd:cb:6a:c4:cd:30:5b:3c:cb:b4:30:b8:78:
                    da:f8:a4:92:81:63:39:22:08:33:92:d6:fc:6e:df:
                    58:ef:66:b6:77:6b:b4:0a:53:8b:03:7c:02:d8:60:
                    c4:5a:f7:38:ec:a4:27:40:08:78:3a:0d:3c:16:9b:
                    d6:b6:7a:ac:32:aa:83:2f:00:8e:cb:26:3a:46:c9:
                    1d:56:db:0c:ea:1e:93:ec:f7:80:53:23:3d:ea:90:
                    eb:2d:29:27:03:7e:d7:d2:a7:01:7b:78:a2:49:11:
                    99:9a:c2:7c:3d:47:29:42:99:5a:9a:ed:02:60:39:
                    07:a4:47:79:8e:3c:05:48:73:d8:04:6e:f1:17:f4:
                    31:59:d7:ef:dc:7e:1a:92:13:32:b1:4a:21:9e:3e:
                    5a:d1:94:c4:b8:62:3b:f6:36:c5:9a:fe:65:0e:4c:
                    1f:83
                Exponent: 65537 (0x10001)
        X509v3 extensions:
            X509v3 Subject Key Identifier: 
                84:D0:21:26:13:BD:6C:3C:AA:DA:F6:3E:22:03:84:C1:7B:C6:8C:AE
            X509v3 Authority Key Identifier: 
                26:5D:E7:64:06:6D:5E:47:0F:68:6D:12:D8:2B:8F:9B:7C:C0:27:0C
            X509v3 Basic Constraints: 
                CA:TRUE
    Signature Algorithm: sha256WithRSAEncryption
    Signature Value:
        58:79:12:d6:9f:e6:bf:43:7b:bd:a8:7b:2f:b6:a5:15:96:4e:
        de:a5:7d:11:c8:fd:ed:b6:8e:3f:59:ac:6b:32:af:78:ca:81:
        4c:2a:82:37:85:19:d9:69:2b:c6:8f:2d:1b:5e:f0:62:55:e9:
        de:85:5a:f1:89:66:37:81:2c:aa:93:6f:b9:f9:54:f3:e5:19:
        73:06:45:5e:9c:e0:59:0b:17:5b:24:02:b7:67:b3:01:57:e4:
        36:6a:6c:42:89:11:6f:62:6e:23:3b:0a:9a:7d:7a:81:53:24:
        6d:2c:06:63:e4:e0:b9:b5:36:5d:26:1c:6e:42:b6:01:03:ba:
        2f:c5:65:ad:a6:d2:22:30:c5:72:74:bd:a5:b4:3d:68:79:87:
        54:05:e8:06:02:af:5b:52:eb:62:c8:80:94:c9:80:58:8d:f7:
        30:ee:78:1b:a4:51:ba:c6:4b:85:35:4f:f3:e2:ba:e4:7c:8e:
        2a:b4:fb:7b:a4:ab:d3:de:a4:33:2b:be:a1:bc:aa:55:f2:70:
        8c:52:d1:dc:69:6e:f0:5b:72:53:6b:68:1a:1b:3f:76:92:07:
        24:f4:18:e8:ce:47:00:10:c1:bc:c8:a8:be:da:f1:9e:b3:8c:
        51:9f:2c:0c:fb:38:2f:ee:4d:91:00:69:fb:7a:ce:27:3a:7b:
        d1:b8:d8:a9
-----BEGIN CERTIFICATE-----
MIIDpjCCAo6gAwIBAgIBAjANBgkqhkiG9w0BAQsFADBtMQswCQYDVQQGEwJHQjET
MBEGA1UECAwKRGVyYnlzaGlyZTEOMAwGA1UEBwwFRGVyYnkxFTATBgNVBAoMDFBh
aG8gUHJvamVjdDEQMA4GA1UECwwHVGVzdGluZzEQMA4GA1UEAwwHUm9vdCBDQTAg
Fw0yNjA3MTUxNTI0MDRaGA8zMDI1MTExNTE1MjQwNFowbDELMAkGA1UEBhMCR0Ix
EzARBgNVBAgMCkRlcmJ5c2hpcmUxFTATBgNVBAoMDFBhaG8gUHJvamVjdDEQMA4G
A1UECwwHVGVzdGluZzEfMB0GA1UEAwwWQWx0ZXJuYXRpdmUgU2lnbmluZyBDQTCC
ASIwDQYJKoZIhvcNAQEBBQADggEPADCCAQoCggEBAKssLDdV/ax0FkqWtXIqrJI+
Etc4mK72aRs3a7sGzhSyTvSJ4gSJx9dt72RVsmiLIWtcEQQTrRGZOoSkIfsVMZwI
ASaSjSliDN29bE/uR+9AQi24DgSvAVUf6VD9y2rEzTBbPMu0MLh42vikkoFjOSII
M5LW/G7fWO9mtndrtApTiwN8AthgxFr3OOykJ0AIeDoNPBab1rZ6rDKqgy8Ajssm
OkbJHVbbDOoek+z3gFMjPeqQ6y0pJwN+19KnAXt4okkRmZrCfD1HKUKZWprtAmA5
B6RHeY48BUhz2ARu8Rf0MVnX79x+GpITMrFKIZ4+WtGUxLhiO/Y2xZr+ZQ5MH4MC
AwEAAaNQME4wHQYDVR0OBBYEFITQISYTvWw8qtr2PiIDhMF7xoyuMB8GA1UdIwQY
MBaAFCZd52QGbV5HD2htEtgrj5t8wCcMMAwGA1UdEwQFMAMBAf8wDQYJKoZIhvcN
AQELBQADggEBAFh5Etaf5r9De72oey+2pRWWTt6lfRHI/e22jj9ZrGsyr3jKgUwq
gjeFGdlpK8aPLRte8GJV6d6FWvGJZjeBLKqTb7n5VPPlGXMGRV6c4FkLF1skArdn
swFX5DZqbEKJEW9ibiM7Cpp9eoFTJG0sBmPk4Lm1Nl0mHG5CtgEDui/FZa2m0iIw
xXJ0vaW0PWh5h1QF6AYCr1tS62LIgJTJgFiN9zDueBukUbrGS4U1T/PiuuR8jiq0
+3ukq9PepDMrvqG8qlXycIxS0dxpbvBbclNraBobP3aSByT0GOjORwAQwbzIqL7a
8Z6zjFGfLAz7OC/uTZEAaft6zic6e9G42Kk=
-----END CERTIFICATE-----
