Certificate:
    Data:
        Version: 3 (0x2)
        Serial Number: 1 (0x1)
        Signature Algorithm: sha256WithRSAEncryption
        Issuer: C=GB, ST=Derbyshire, L=Derby, O=Paho Project, OU=Testing, CN=Root CA
        Validity
            Not Before: Jul 15 15:24:04 2026 GMT
            Not After : Nov 15 15:24:04 3025 GMT
        Subject: C=GB, ST=Derbyshire, O=Paho Project, OU=Testing, CN=Signing CA
        Subject Public Key Info:
            Public Key Algorithm: rsaEncryption
                Public-Key: (2048 bit)
                Modulus:
                    00:9f:a9:4b:13:0c:12:34:02:ec:8e:53:2b:54:2c:
                    7e:78:72:2f:c0:0a:84:9c:4e:c5:24:2f:09:ea:4a:
                    ab:4e:bd:1e:71:ac:7b:a1:f3:13:d8:5b:8d:42:2c:
                    b5:ea:eb:21:39:91:02:38:e1:a0:d2:ce:d4:0f:9a:
                    36:12:65:d3:50:f4:01:ae:c9:59:16:29:9e:73:c9:
                    3f:16:be:9e:5b:64:f4:c6:98:47:ea:b9:47:f0:e5:
                    19:67:93:4c:a6:60:18:34:2f:ed:ca:55:be:92:0f:
                    bb:a2:ea:24:3f:2b:e0:cd:25:96:06:ee:4c:9c:e3:
                    bb:79:ad:28:18:0d:e2:fd:23:31:12:80:f0:13:e4:
                    ad:1a:4d:87:14:cf:37:2d:17:e7:ab:5f:f6:59:06:
                    ed:16:27:cb:40:28:f5:4f:83:63:f6:6d:85:77:34:
                    c9:04:4b:c9:eb:33:4e:ac:93:e9:14:3a:d4:1d:9f:
                    01:ff:78:60:f4:c7:4c:42:d4:bf:70:4d:01:04:02:
                    ea:21:88:b0:f1:04:d1:be:54:60:09:6e:d7:57:93:
                    ca:79:c7:4c:36:25:da:ee:01:84:d2:11:a6:55:91:
                    f3:5d:f8:bc:ac:53:79:aa:60:05:aa:63:68:7b:59:
                    53:73:7c:d2:87:1c:f4:a0:32:f8:44:89:2a:0d:99:
                    8f:51
                Exponent: 65537 (0x10001)
        X509v3 extensions:
            X509v3 Subject Key Identifier: 
                18:75:A0:8A:DA:16:27:DC:4A:01:BC:F1:0B:ED:2B:C2:CB:4E:29:D0
            X509v3 Authority Key Identifier: 
                26:5D:E7:64:06:6D:5E:47:0F:68:6D:12:D8:2B:8F:9B:7C:C0:27:0C
            X509v3 Basic Constraints: 
                CA:TRUE
    Signature Algorithm: sha256WithRSAEncryption
    Signature Value:
        a4:c2:ab:67:6a:60:86:df:a3:d6:63:d1:24:ea:1b:bc:24:20:
        1d:b6:9c:34:1d:7d:76:10:6f:ba:c8:fd:38:88:e2:dc:3a:32:
        29:9b:24:54:42:e1:9e:d1:52:40:98:35:c6:6d:79:79:3c:33:
        58:1a:4d:62:e9:2b:b2:b9:71:bc:ba:2a:b9:ce:95:8d:03:13:
        44:91:d4:6f:c6:ea:e3:6f:1c:a3:72:c9:05:17:41:a8:db:20:
        97:98:bf:f0:d2:df:97:e1:41:d7:d9:eb:88:83:14:58:bf:50:
        31:e5:38:e2:5f:de:23:83:74:e1:e0:9a:00:c8:d3:f1:83:60:
        69:81:1e:17:d8:8a:b4:fb:25:fb:c8:25:09:f7:c7:ec:0d:b1:
        07:50:3e:ab:00:4a:80:94:dd:97:15:88:dd:90:a0:e4:a9:25:
        ff:87:c3:78:67:af:3a:3e:d4:54:bf:3c:f7:b6:8d:cd:dc:93:
        b8:c7:1b:ea:3a:78:27:31:ab:f3:ba:a1:60:d0:03:7f:d6:1f:
        55:fd:dd:1a:17:ab:09:e1:b9:14:31:3f:5a:7a:a3:a3:60:df:
        89:3a:b5:ce:49:db:d6:59:e9:c6:07:56:37:1c:27:e1:75:5c:
        99:ab:53:1f:1b:15:13:e2:96:15:cc:ff:29:58:72:40:be:82:
        62:eb:fe:55
-----BEGIN CERTIFICATE-----
MIIDmjCCAoKgAwIBAgIBATANBgkqhkiG9w0BAQsFADBtMQswCQYDVQQGEwJHQjET
MBEGA1UECAwKRGVyYnlzaGlyZTEOMAwGA1UEBwwFRGVyYnkxFTATBgNVBAoMDFBh
aG8gUHJvamVjdDEQMA4GA1UECwwHVGVzdGluZzEQMA4GA1UEAwwHUm9vdCBDQTAg
Fw0yNjA3MTUxNTI0MDRaGA8zMDI1MTExNTE1MjQwNFowYDELMAkGA1UEBhMCR0Ix
EzARBgNVBAgMCkRlcmJ5c2hpcmUxFTATBgNVBAoMDFBhaG8gUHJvamVjdDEQMA4G
A1UECwwHVGVzdGluZzETMBEGA1UEAwwKU2lnbmluZyBDQTCCASIwDQYJKoZIhvcN
AQEBBQADggEPADCCAQoCggEBAJ+pSxMMEjQC7I5TK1QsfnhyL8AKhJxOxSQvCepK
q069HnGse6HzE9hbjUIsterrITmRAjjhoNLO1A+aNhJl01D0Aa7JWRYpnnPJPxa+
nltk9MaYR+q5R/DlGWeTTKZgGDQv7cpVvpIPu6LqJD8r4M0llgbuTJzju3mtKBgN
4v0jMRKA8BPkrRpNhxTPNy0X56tf9lkG7RYny0Ao9U+DY/ZthXc0yQRLyeszTqyT
6RQ61B2fAf94YPTHTELUv3BNAQQC6iGIsPEE0b5UYAlu11eTynnHTDYl2u4BhNIR
plWR8134vKxTeapgBapjaHtZU3N80occ9KAy+ESJKg2Zj1ECAwEAAaNQME4wHQYD
VR0OBBYEFBh1oIraFifcSgG88QvtK8LLTinQMB8GA1UdIwQYMBaAFCZd52QGbV5H
D2htEtgrj5t8wCcMMAwGA1UdEwQFMAMBAf8wDQYJKoZIhvcNAQELBQADggEBAKTC
q2dqYIbfo9Zj0STqG7wkIB22nDQdfXYQb7rI/TiI4tw6MimbJFRC4Z7RUkCYNcZt
eXk8M1gaTWLpK7K5cby6KrnOlY0DE0SR1G/G6uNvHKNyyQUXQajbIJeYv/DS35fh
QdfZ64iDFFi/UDHlOOJf3iODdOHgmgDI0/GDYGmBHhfYirT7JfvIJQn3x+wNsQdQ
PqsASoCU3ZcViN2QoOSpJf+Hw3hnrzo+1FS/PPe2jc3ck7jHG+o6eCcxq/O6oWDQ
A3/WH1X93RoXqwnhuRQxP1p6o6Ng34k6tc5J29ZZ6cYHVjccJ+F1XJmrUx8bFRPi
lhXM/ylYckC+gmLr/lU=
-----END CERTIFICATE-----
