Certificate:
    Data:
        Version: 3 (0x2)
        Serial Number: 1 (0x1)
        Signature Algorithm: sha256WithRSAEncryption
        Issuer: C=GB, ST=Derbyshire, L=Derby, O=Paho Project, OU=Testing, CN=Root CA
        Validity
            Not Before: Jul 13 10:56:00 2026 GMT
            Not After : Jul 12 10:56:00 2031 GMT
        Subject: C=GB, ST=Derbyshire, O=Paho Project, OU=Testing, CN=Signing CA
        Subject Public Key Info:
            Public Key Algorithm: rsaEncryption
                Public-Key: (2048 bit)
                Modulus:
                    00:cb:4e:2b:b5:ec:30:4e:f0:43:61:cb:95:82:f8:
                    d1:87:a0:d3:38:f9:fb:ac:33:da:ff:60:dc:45:a7:
                    40:3a:17:d9:7c:b1:46:61:97:0b:16:5b:db:81:7f:
                    f4:95:57:99:d7:e5:e7:99:a5:c1:8d:41:4f:90:3b:
                    4a:14:a3:e8:4a:7c:48:b4:03:a5:ef:a4:4e:8c:0e:
                    b3:96:c9:3d:af:d8:3d:91:88:b1:8a:a2:b8:7c:72:
                    3b:18:ac:c8:17:07:f9:b6:8c:bf:f5:48:d6:0d:ca:
                    9b:34:d9:3b:15:d7:e7:e9:ec:73:f8:53:32:cf:2e:
                    16:3e:e3:c5:05:cb:78:26:78:56:d4:cc:be:9a:01:
                    fe:5b:06:94:d9:10:41:8c:fd:20:02:7c:ec:0d:44:
                    75:ea:27:81:d0:3b:ad:ab:c2:3e:b7:46:8d:07:51:
                    69:c7:17:63:ac:b1:17:bc:2e:f5:c7:9a:79:c6:81:
                    77:f2:70:94:10:07:c4:f3:b7:b6:eb:6d:c7:b9:fb:
                    37:04:4e:3a:02:c1:78:69:3a:1f:4a:13:0f:91:44:
                    eb:33:30:e0:80:af:50:b0:93:8c:4d:cd:8e:a8:5d:
                    5e:3b:b6:52:34:9e:88:3f:8a:49:52:ba:05:3d:8c:
                    d5:da:48:5d:a5:df:f8:49:cc:c5:32:e4:9c:8b:6a:
                    dc:31
                Exponent: 65537 (0x10001)
        X509v3 extensions:
            X509v3 Subject Key Identifier: 
                41:EB:9F:5B:4C:1C:16:2B:ED:7B:A3:74:34:9C:4B:13:8D:67:C7:76
            X509v3 Authority Key Identifier: 
                B5:90:39:D8:5B:05:5D:10:06:C9:A8:59:CB:4F:5A:E5:32:5B:26:A9
            X509v3 Basic Constraints: 
                CA:TRUE
    Signature Algorithm: sha256WithRSAEncryption
    Signature Value:
        59:cd:0b:e2:c6:f0:af:63:b1:ae:24:55:d7:f5:f5:a4:0d:06:
        70:02:b9:95:b0:88:d9:d1:17:18:c6:58:34:b2:fe:ba:ca:0d:
        8c:41:c4:4f:c3:94:ab:90:7a:dd:1d:14:7b:a4:53:bc:f7:01:
        34:dd:3b:cf:e6:44:6c:3e:50:b8:00:d8:45:1f:38:e2:55:1d:
        f5:c5:34:99:e6:a9:1d:7e:ab:b6:c7:68:77:2b:3c:e6:2d:e8:
        0e:fd:6f:11:dc:da:76:78:26:07:c0:6b:97:27:68:d4:4f:f0:
        1e:fd:2c:7d:d8:27:15:e5:ef:1d:fb:0e:cf:75:de:9e:f7:76:
        f5:fb:7f:bd:a9:b6:db:69:2f:6c:d0:f9:6c:6d:f0:cf:d9:88:
        0e:9c:45:f3:91:7b:02:9c:37:d4:b0:38:f4:25:f1:2d:4e:d4:
        95:93:e5:a0:0a:e6:0e:d0:b4:7c:97:15:bd:c9:aa:d2:42:48:
        4e:bc:9e:b0:60:81:64:3d:47:ee:56:40:fd:63:af:86:0d:f7:
        23:ec:50:2a:13:ed:cd:47:d9:41:56:97:4b:a6:05:85:67:d6:
        59:51:d1:95:a4:8a:1b:c5:ac:f1:5a:17:d0:5c:41:e4:31:2c:
        c4:e4:94:00:6e:66:f1:9e:86:ec:61:1b:6d:94:d4:14:c8:dc:
        bc:f1:dd:dd
-----BEGIN CERTIFICATE-----
MIIDmDCCAoCgAwIBAgIBATANBgkqhkiG9w0BAQsFADBtMQswCQYDVQQGEwJHQjET
MBEGA1UECAwKRGVyYnlzaGlyZTEOMAwGA1UEBwwFRGVyYnkxFTATBgNVBAoMDFBh
aG8gUHJvamVjdDEQMA4GA1UECwwHVGVzdGluZzEQMA4GA1UEAwwHUm9vdCBDQTAe
Fw0yNjA3MTMxMDU2MDBaFw0zMTA3MTIxMDU2MDBaMGAxCzAJBgNVBAYTAkdCMRMw
EQYDVQQIDApEZXJieXNoaXJlMRUwEwYDVQQKDAxQYWhvIFByb2plY3QxEDAOBgNV
BAsMB1Rlc3RpbmcxEzARBgNVBAMMClNpZ25pbmcgQ0EwggEiMA0GCSqGSIb3DQEB
AQUAA4IBDwAwggEKAoIBAQDLTiu17DBO8ENhy5WC+NGHoNM4+fusM9r/YNxFp0A6
F9l8sUZhlwsWW9uBf/SVV5nX5eeZpcGNQU+QO0oUo+hKfEi0A6XvpE6MDrOWyT2v
2D2RiLGKorh8cjsYrMgXB/m2jL/1SNYNyps02TsV1+fp7HP4UzLPLhY+48UFy3gm
eFbUzL6aAf5bBpTZEEGM/SACfOwNRHXqJ4HQO62rwj63Ro0HUWnHF2OssRe8LvXH
mnnGgXfycJQQB8Tzt7brbce5+zcETjoCwXhpOh9KEw+RROszMOCAr1Cwk4xNzY6o
XV47tlI0nog/iklSugU9jNXaSF2l3/hJzMUy5JyLatwxAgMBAAGjUDBOMB0GA1Ud
DgQWBBRB659bTBwWK+17o3Q0nEsTjWfHdjAfBgNVHSMEGDAWgBS1kDnYWwVdEAbJ
qFnLT1rlMlsmqTAMBgNVHRMEBTADAQH/MA0GCSqGSIb3DQEBCwUAA4IBAQBZzQvi
xvCvY7GuJFXX9fWkDQZwArmVsIjZ0RcYxlg0sv66yg2MQcRPw5SrkHrdHRR7pFO8
9wE03TvP5kRsPlC4ANhFHzjiVR31xTSZ5qkdfqu2x2h3KzzmLegO/W8R3Np2eCYH
wGuXJ2jUT/Ae/Sx92CcV5e8d+w7Pdd6e93b1+3+9qbbbaS9s0PlsbfDP2YgOnEXz
kXsCnDfUsDj0JfEtTtSVk+WgCuYO0LR8lxW9yarSQkhOvJ6wYIFkPUfuVkD9Y6+G
Dfcj7FAqE+3NR9lBVpdLpgWFZ9ZZUdGVpIobxazxWhfQXEHkMSzE5JQAbmbxnobs
YRttlNQUyNy88d3d
-----END CERTIFICATE-----
